SH2 Disassembly from offset 0x023000 (4096 instructions)
======================================================================
02223000  0085     DW      $0085
02223002  0000     DW      $0000
02223004  C000     DW      $C000
02223006  0000     DW      $0000
02223008  0600     DW      $0600

; === data_init_stride_loop ===
0222300A  300C     ADD     R0,R0
0222300C  DC04     MOV.L   @($02223020,PC),R12
0222300E  E70C     MOV     #$0C,R7
02223010  60D6     MOV.L   @R13+,R0
02223012  2C02     MOV.L   R0,@R12
02223014  4710     DT      R7
02223016  8FFB     BF/S    $02223010
02223018  7C04     ADD     #$04,R12
0222301A  000B     RTS

; === display_list_processor ===
0222301C  0009     NOP
0222301E  0000     DW      $0000
02223020  C000     DW      $C000
02223022  0740     DW      $0740
02223024  4F22     STS.L   PR,@-R15    ; Push PR
02223026  B0A7     BSR     $02223178
02223028  7D02     ADD     #$02,R13
0222302A  A003     BRA     $02223034
0222302C  0009     NOP
0222302E  4F22     STS.L   PR,@-R15    ; Push PR
02223030  B05A     BSR     $022230E8
02223032  7D02     ADD     #$02,R13
02223034  5AEB     MOV.L   @($2C,R14),R10
02223036  5BE9     MOV.L   @($24,R14),R11
02223038  69D5     MOV.W   @R13+,R9
0222303A  6098     SWAP.B  R9,R0
0222303C  C90E     DW      $C90E
0222303E  880C     CMP/EQ  #$0C,R0
02223040  890F     BT      $02223062
02223042  6103     MOV     R0,R1
02223044  C708     DW      $C708
02223046  011D     DW      $011D
02223048  0103     DW      $0103
0222304A  0009     NOP
0222304C  6093     MOV     R9,R0
0222304E  C801     DW      $C801
02223050  8B03     BF      $0222305A
02223052  B0C9     BSR     $022231E8
02223054  85E1     MOV.B   R0,@($1,R5)
02223056  AFF0     BRA     $0222303A
02223058  69D5     MOV.W   @R13+,R9
0222305A  B0D4     BSR     $02223206
0222305C  85E1     MOV.B   R0,@($1,R5)
0222305E  AFEC     BRA     $0222303A
02223060  69D5     MOV.W   @R13+,R9
02223062  4F26     LDS.L   @R15+,PR    ; Pop PR
02223064  000B     RTS

; === render_init ===
02223066  1EB9     MOV.L   R11,@($24,R14)
02223068  0024     DW      $0024
0222306A  003C     DW      $003C
0222306C  0048     DW      $0048
0222306E  005A     DW      $005A
02223070  4F22     STS.L   PR,@-R15    ; Push PR
02223072  5CE8     MOV.L   @($20,R14),R12
02223074  60D5     MOV.W   @R13+,R0
02223076  81E1     MOV.B   R0,@($1,R1)
02223078  66D5     MOV.W   @R13+,R6
0222307A  B02B     BSR     $022230D4
0222307C  E700     MOV     #$00,R7
0222307E  66D5     MOV.W   @R13+,R6
02223080  B028     BSR     $022230D4
02223082  E710     MOV     #$10,R7
02223084  A019     BRA     $022230BA
02223086  66D5     MOV.W   @R13+,R6
02223088  4F22     STS.L   PR,@-R15    ; Push PR
0222308A  E630     MOV     #$30,R6
0222308C  B027     BSR     $022230DE
0222308E  E710     MOV     #$10,R7
02223090  A00F     BRA     $022230B2
02223092  4F26     LDS.L   @R15+,PR    ; Pop PR
02223094  4F22     STS.L   PR,@-R15    ; Push PR
02223096  E630     MOV     #$30,R6
02223098  B021     BSR     $022230DE
0222309A  E700     MOV     #$00,R7
0222309C  E620     MOV     #$20,R6
0222309E  B01E     BSR     $022230DE
022230A0  E710     MOV     #$10,R7
022230A2  A006     BRA     $022230B2
022230A4  4F26     LDS.L   @R15+,PR    ; Pop PR
022230A6  4F22     STS.L   PR,@-R15    ; Push PR
022230A8  E620     MOV     #$20,R6
022230AA  B018     BSR     $022230DE
022230AC  E700     MOV     #$00,R7
022230AE  A000     BRA     $022230B2
022230B0  4F26     LDS.L   @R15+,PR    ; Pop PR
022230B2  4F22     STS.L   PR,@-R15    ; Push PR
022230B4  60D5     MOV.W   @R13+,R0
022230B6  81E1     MOV.B   R0,@($1,R1)
022230B8  66D5     MOV.W   @R13+,R6
022230BA  B00B     BSR     $022230D4
022230BC  E720     MOV     #$20,R7
022230BE  C801     DW      $C801
022230C0  E730     MOV     #$30,R7
022230C2  8B04     BF      $022230CE
022230C4  B006     BSR     $022230D4
022230C6  66D5     MOV.W   @R13+,R6
022230C8  4F26     LDS.L   @R15+,PR    ; Pop PR
022230CA  000B     RTS

; === clear_render_state ===
022230CC  0009     NOP
022230CE  37CC     ADD     R12,R7
022230D0  AFFA     BRA     $022230C8
022230D2  1743     MOV.L   R4,@($C,R7)
022230D4  36AC     ADD     R10,R6
022230D6  37CC     ADD     R12,R7
022230D8  5463     MOV.L   @($C,R6),R4
022230DA  000B     RTS

; === load_render_params ===
022230DC  1743     MOV.L   R4,@($C,R7)
022230DE  36CC     ADD     R12,R6
022230E0  37CC     ADD     R12,R7
022230E2  5463     MOV.L   @($C,R6),R4
022230E4  000B     RTS

; === matrix_transform_loop ===
022230E6  1743     MOV.L   R4,@($C,R7)
022230E8  2FE6     MOV.L   R14,@-R15
022230EA  4F22     STS.L   PR,@-R15    ; Push PR
022230EC  6BD5     MOV.W   @R13+,R11
022230EE  5AEB     MOV.L   @($2C,R14),R10
022230F0  5CE4     MOV.L   @($10,R14),R12
022230F2  69C9     SWAP.W  R12,R9
022230F4  699F     EXTS.W  R9,R9
022230F6  6CCF     EXTS.W  R12,R12
022230F8  57E2     MOV.L   @($8,R14),R7
022230FA  D407     MOV.L   @($02223118,PC),R4
022230FC  D507     MOV.L   @($0222311C,PC),R5
022230FE  960A     MOV.W   @(${target:08X},PC),R6
02223100  5EE7     MOV.L   @($1C,R14),R14
02223102  4E0B     JSR     @R14
02223104  60D5     MOV.W   @R13+,R0
02223106  B00B     BSR     $02223120
02223108  0028     CLRMAC
0222310A  4B10     DT      R11
0222310C  8FF9     BF/S    $02223102
0222310E  7A10     ADD     #$10,R10
02223110  4F26     LDS.L   @R15+,PR    ; Pop PR
02223112  000B     RTS

; === matrix_vector_multiply ===
02223114  6EF6     MOV.L   @R15+,R14
02223116  FF00     DW      $FF00
02223118  C000     DW      $C000
0222311A  0760     DW      $0760
0222311C  C000     DW      $C000
0222311E  0770     DW      $0770
02223120  054F     MAC.L   @R4+,@R5+
02223122  054F     MAC.L   @R4+,@R5+
02223124  054F     MAC.L   @R4+,@R5+
02223126  75F4     ADD     #$F4,R5
02223128  6846     MOV.L   @R4+,R8
0222312A  74D0     ADD     #$D0,R4
0222312C  000A     STS     MACH,R0
0222312E  031A     STS     MACL,R3
02223130  230D     XTRCT   R0,R3
02223132  338C     ADD     R8,R3
02223134  1630     MOV.L   R3,@($0,R6)
02223136  1674     MOV.L   R7,@($10,R6)
02223138  E000     MOV     #$00,R0
0222313A  1605     MOV.L   R0,@($14,R6)
0222313C  0028     CLRMAC
0222313E  054F     MAC.L   @R4+,@R5+
02223140  054F     MAC.L   @R4+,@R5+
02223142  054F     MAC.L   @R4+,@R5+
02223144  75F4     ADD     #$F4,R5
02223146  6846     MOV.L   @R4+,R8
02223148  000A     STS     MACH,R0
0222314A  011A     STS     MACL,R1
0222314C  210D     XTRCT   R0,R1
0222314E  318C     ADD     R8,R1
02223150  0028     CLRMAC
02223152  054F     MAC.L   @R4+,@R5+
02223154  054F     MAC.L   @R4+,@R5+
02223156  054F     MAC.L   @R4+,@R5+
02223158  75F4     ADD     #$F4,R5
0222315A  6846     MOV.L   @R4+,R8
0222315C  000A     STS     MACH,R0
0222315E  021A     STS     MACL,R2
02223160  220D     XTRCT   R0,R2
02223162  328C     ADD     R8,R2
02223164  5367     MOV.L   @($1C,R6),R3
02223166  313D     DW      $313D
02223168  000A     STS     MACH,R0
0222316A  309C     ADD     R9,R0
0222316C  81A6     MOV.B   R0,@($6,R1)
0222316E  323D     DW      $323D
02223170  000A     STS     MACH,R0
02223172  30CC     ADD     R12,R0
02223174  000B     RTS

; === alt_transform_loop ===
02223176  81A7     MOV.B   R0,@($7,R1)
02223178  2FE6     MOV.L   R14,@-R15
0222317A  4F22     STS.L   PR,@-R15    ; Push PR
0222317C  6BD5     MOV.W   @R13+,R11
0222317E  5AEB     MOV.L   @($2C,R14),R10
02223180  5CE4     MOV.L   @($10,R14),R12
02223182  69C9     SWAP.W  R12,R9
02223184  699F     EXTS.W  R9,R9
02223186  6CCF     EXTS.W  R12,R12
02223188  53E6     MOV.L   @($18,R14),R3
0222318A  D406     MOV.L   @($022231A4,PC),R4
0222318C  D506     MOV.L   @($022231A8,PC),R5
0222318E  5EE7     MOV.L   @($1C,R14),R14
02223190  4E0B     JSR     @R14
02223192  60D5     MOV.W   @R13+,R0
02223194  B00A     BSR     $022231AC
02223196  0028     CLRMAC
02223198  4B10     DT      R11
0222319A  8FF9     BF/S    $02223190
0222319C  7A10     ADD     #$10,R10
0222319E  4F26     LDS.L   @R15+,PR    ; Pop PR
022231A0  000B     RTS

; === transform_handler ===
022231A2  6EF6     MOV.L   @R15+,R14
022231A4  C000     DW      $C000
022231A6  0740     DW      $0740
022231A8  C000     DW      $C000
022231AA  0770     DW      $0770
022231AC  054F     MAC.L   @R4+,@R5+
022231AE  054F     MAC.L   @R4+,@R5+
022231B0  054F     MAC.L   @R4+,@R5+
022231B2  75F4     ADD     #$F4,R5
022231B4  6846     MOV.L   @R4+,R8
022231B6  000A     STS     MACH,R0
022231B8  011A     STS     MACL,R1
022231BA  210D     XTRCT   R0,R1
022231BC  318C     ADD     R8,R1
022231BE  0028     CLRMAC
022231C0  054F     MAC.L   @R4+,@R5+
022231C2  054F     MAC.L   @R4+,@R5+
022231C4  054F     MAC.L   @R4+,@R5+
022231C6  75F4     ADD     #$F4,R5
022231C8  6846     MOV.L   @R4+,R8
022231CA  74E0     ADD     #$E0,R4
022231CC  000A     STS     MACH,R0
022231CE  021A     STS     MACL,R2
022231D0  220D     XTRCT   R0,R2
022231D2  328C     ADD     R8,R2
022231D4  313D     DW      $313D
022231D6  000A     STS     MACH,R0
022231D8  309C     ADD     R9,R0
022231DA  81A6     MOV.B   R0,@($6,R1)
022231DC  323D     DW      $323D
022231DE  000A     STS     MACH,R0
022231E0  30CC     ADD     R12,R0
022231E2  000B     RTS

; === command_handler_09 ===
022231E4  81A7     MOV.B   R0,@($7,R1)
022231E6  85E1     MOV.B   R0,@($1,R5)
022231E8  81B1     MOV.B   R0,@($1,R1)
022231EA  50C3     MOV.L   @($C,R12),R0
022231EC  51C7     MOV.L   @($1C,R12),R1
022231EE  52CB     MOV.L   @($2C,R12),R2
022231F0  53CF     MOV.L   @($3C,R12),R3
022231F2  1B01     MOV.L   R0,@($4,R11)
022231F4  1B12     MOV.L   R1,@($8,R11)
022231F6  1B23     MOV.L   R2,@($C,R11)
022231F8  1B34     MOV.L   R3,@($10,R11)
022231FA  7B14     ADD     #$14,R11
022231FC  85E3     MOV.B   R0,@($3,R5)
022231FE  7001     ADD     #$01,R0
02223200  000B     RTS

; === command_handler_10 ===
02223202  81E3     MOV.B   R0,@($3,R1)
02223204  85E1     MOV.B   R0,@($1,R5)
02223206  81B1     MOV.B   R0,@($1,R1)
02223208  50C3     MOV.L   @($C,R12),R0
0222320A  51C7     MOV.L   @($1C,R12),R1
0222320C  52CB     MOV.L   @($2C,R12),R2
0222320E  1B01     MOV.L   R0,@($4,R11)
02223210  1B12     MOV.L   R1,@($8,R11)
02223212  1B23     MOV.L   R2,@($C,R11)
02223214  7B10     ADD     #$10,R11
02223216  85E3     MOV.B   R0,@($3,R5)
02223218  7001     ADD     #$01,R0
0222321A  000B     RTS

; === transform_wrapper ===
0222321C  81E3     MOV.B   R0,@($3,R1)
0222321E  0009     NOP
02223220  4F22     STS.L   PR,@-R15    ; Push PR
02223222  85E7     MOV.B   R0,@($7,R5)
02223224  8800     CMP/EQ  #$00,R0
02223226  8D1A     BT/S    $0222325E
02223228  6403     MOV     R0,R4
0222322A  85E1     MOV.B   R0,@($1,R5)
0222322C  4018     SHLL8   R0
0222322E  4008     SHLL2   R0
02223230  4008     SHLL2   R0
02223232  6103     MOV     R0,R1
02223234  85E3     MOV.B   R0,@($3,R5)
02223236  4018     SHLL8   R0
02223238  4008     SHLL2   R0
0222323A  4008     SHLL2   R0
0222323C  6303     MOV     R0,R3
0222323E  D50B     MOV.L   @($0222326C,PC),R5
02223240  E200     MOV     #$00,R2
02223242  D00B     MOV.L   @($02223270,PC),R0
02223244  3108     SUB     R0,R1
02223246  330C     ADD     R0,R3
02223248  1510     MOV.L   R1,@($0,R5)
0222324A  1521     MOV.L   R2,@($4,R5)
0222324C  1532     MOV.L   R3,@($8,R5)
0222324E  6043     MOV     R4,R0
02223250  2FE6     MOV.L   R14,@-R15
02223252  2F76     MOV.L   R7,@-R15
02223254  DE07     MOV.L   @($02223274,PC),R14
02223256  B00F     BSR     $02223278
02223258  81E1     MOV.B   R0,@($1,R1)
0222325A  67F6     MOV.L   @R15+,R7
0222325C  6EF6     MOV.L   @R15+,R14
0222325E  4710     DT      R7
02223260  8FDF     BF/S    $02223222
02223262  7E3C     ADD     #$3C,R14
02223264  4F26     LDS.L   @R15+,PR    ; Pop PR
02223266  000B     RTS

; === transform_dispatch ===
02223268  0009     NOP
0222326A  0000     DW      $0000
0222326C  C000     DW      $C000
0222326E  0770     DW      $0770
02223270  0010     DW      $0010
02223272  0000     DW      $0000
02223274  C000     DW      $C000
02223276  0700     DW      $0700
02223278  4F22     STS.L   PR,@-R15    ; Push PR
0222327A  5CE4     MOV.L   @($10,R14),R12
0222327C  69C9     SWAP.W  R12,R9
0222327E  699F     EXTS.W  R9,R9
02223280  6CCF     EXTS.W  R12,R12
02223282  53E6     MOV.L   @($18,R14),R3
02223284  D410     MOV.L   @($022232C8,PC),R4
02223286  D511     MOV.L   @($022232CC,PC),R5
02223288  5AE8     MOV.L   @($20,R14),R10
0222328A  BF8F     BSR     $022231AC
0222328C  0028     CLRMAC
0222328E  7A10     ADD     #$10,R10
02223290  D00F     MOV.L   @($022232D0,PC),R0
02223292  5150     MOV.L   @($0,R5),R1
02223294  310C     ADD     R0,R1
02223296  1510     MOV.L   R1,@($0,R5)
02223298  BF88     BSR     $022231AC
0222329A  0028     CLRMAC
0222329C  7A10     ADD     #$10,R10
0222329E  D00C     MOV.L   @($022232D0,PC),R0
022232A0  5152     MOV.L   @($8,R5),R1
022232A2  3108     SUB     R0,R1
022232A4  1512     MOV.L   R1,@($8,R5)
022232A6  BF81     BSR     $022231AC
022232A8  0028     CLRMAC
022232AA  7A10     ADD     #$10,R10
022232AC  D008     MOV.L   @($022232D0,PC),R0
022232AE  5150     MOV.L   @($0,R5),R1
022232B0  3108     SUB     R0,R1
022232B2  1510     MOV.L   R1,@($0,R5)
022232B4  BF7A     BSR     $022231AC
022232B6  0028     CLRMAC
022232B8  5CE8     MOV.L   @($20,R14),R12
022232BA  5BE9     MOV.L   @($24,R14),R11
022232BC  BF93     BSR     $022231E6
022232BE  0009     NOP
022232C0  4F26     LDS.L   @R15+,PR    ; Pop PR
022232C2  000B     RTS

; === projection_calc ===
022232C4  1EB9     MOV.L   R11,@($24,R14)
022232C6  0000     DW      $0000
022232C8  C000     DW      $C000
022232CA  0740     DW      $0740
022232CC  C000     DW      $C000
022232CE  0770     DW      $0770
022232D0  0020     DW      $0020
022232D2  0000     DW      $0000
022232D4  DE0D     MOV.L   @($0222330C,PC),R14
022232D6  C70F     DW      $C70F
022232D8  E70E     MOV     #$0E,R7
022232DA  6DE3     MOV     R14,R13
022232DC  7D0C     ADD     #$0C,R13
022232DE  6106     MOV.L   @R0+,R1
022232E0  2D12     MOV.L   R1,@R13
022232E2  4710     DT      R7
022232E4  8FFB     BF/S    $022232DE
022232E6  7D04     ADD     #$04,R13
022232E8  D009     MOV.L   @($02223310,PC),R0
022232EA  51E9     MOV.L   @($24,R14),R1
022232EC  210B     OR      R0,R1
022232EE  E008     MOV     #$08,R0
022232F0  970B     MOV.W   @(${target:08X},PC),R7
022232F2  811E     MOV.B   R0,@($E,R1)
022232F4  7140     ADD     #$40,R1
022232F6  811E     MOV.B   R0,@($E,R1)
022232F8  7140     ADD     #$40,R1
022232FA  811E     MOV.B   R0,@($E,R1)
022232FC  7140     ADD     #$40,R1
022232FE  811E     MOV.B   R0,@($E,R1)
02223300  4710     DT      R7
02223302  8FF6     BF/S    $022232F2
02223304  7140     ADD     #$40,R1
02223306  000B     RTS

; === depth_calc ===
02223308  0009     NOP
0222330A  0040     DW      $0040
0222330C  C000     DW      $C000
0222330E  0700     DW      $0700
02223310  2000     MOV.B   R0,@R0
02223312  0000     DW      $0000
02223314  0000     DW      $0000
02223316  00A0     DW      $00A0
02223318  0000     DW      $0000
0222331A  0070     DW      $0070
0222331C  0000     DW      $0000
0222331E  0010     DW      $0010
02223320  0000     DW      $0000
02223322  00CF     MAC.L   @R12+,@R0+
02223324  0000     DW      $0000
02223326  0000     DW      $0000
02223328  0000     DW      $0000
0222332A  013F     MAC.L   @R3+,@R1+
0222332C  0601     DW      $0601
0222332E  8000     MOV.B   R0,@($0,R0)
02223330  D204     MOV.L   @($02223344,PC),R2
02223332  E706     MOV     #$06,R7
02223334  6016     MOV.L   @R1+,R0
02223336  2202     MOV.L   R0,@R2
02223338  4710     DT      R7
0222333A  8FFB     BF/S    $02223334
0222333C  7204     ADD     #$04,R2
0222333E  000B     RTS

; === screen_coord_convert ===
02223340  0009     NOP
02223342  0000     DW      $0000
02223344  C000     DW      $C000
02223346  070C     DW      $070C
02223348  D105     MOV.L   @($02223360,PC),R1
0222334A  D006     MOV.L   @($02223364,PC),R0
0222334C  9706     MOV.W   @(${target:08X},PC),R7
0222334E  6206     MOV.L   @R0+,R2
02223350  2122     MOV.L   R2,@R1
02223352  4710     DT      R7
02223354  8FFB     BF/S    $0222334E
02223356  7104     ADD     #$04,R1
02223358  000B     RTS
0222335A  0009     NOP
0222335C  0192     DW      $0192
0222335E  0000     DW      $0000
02223360  C000     DW      $C000
02223362  0000     DW      $0000
02223364  0600     DW      $0600
02223366  3368     SUB     R6,R3

; === coord_transform_util ===
02223368  51E7     MOV.L   @($1C,R14),R1
0222336A  52E8     MOV.L   @($20,R14),R2
0222336C  4128     SHLL16  R1
0222336E  4228     SHLL16  R2
02223370  50E5     MOV.L   @($14,R14),R0
02223372  6313     MOV     R1,R3
02223374  6423     MOV     R2,R4
02223376  210B     OR      R0,R1
02223378  220B     OR      R0,R2
0222337A  1E1A     MOV.L   R1,@($28,R14)
0222337C  1E2B     MOV.L   R2,@($2C,R14)
0222337E  50E6     MOV.L   @($18,R14),R0
02223380  230B     OR      R0,R3
02223382  240B     OR      R0,R4
02223384  1E3C     MOV.L   R3,@($30,R14)
02223386  000B     RTS

; === coord_transform_single ===
02223388  1E4D     MOV.L   R4,@($34,R14)
0222338A  4F22     STS.L   PR,@-R15    ; Push PR
0222338C  BFEC     BSR     $02223368
0222338E  0009     NOP
02223390  60A2     MOV.L   @R10,R0
02223392  8800     CMP/EQ  #$00,R0
02223394  8B06     BF      $022233A4
02223396  7AFC     ADD     #$FC,R10
02223398  4710     DT      R7
0222339A  8FF9     BF/S    $02223390
0222339C  7BC0     ADD     #$C0,R11
0222339E  4F26     LDS.L   @R15+,PR    ; Pop PR
022233A0  000B     RTS

; === coord_transform_pair ===
022233A2  0009     NOP
022233A4  E100     MOV     #$00,R1
022233A6  2A12     MOV.L   R1,@R10
022233A8  7AFC     ADD     #$FC,R10
022233AA  4001     SHLR    R0
022233AC  1E02     MOV.L   R0,@($8,R14)
022233AE  2F66     MOV.L   R6,@-R15
022233B0  2F76     MOV.L   R7,@-R15
022233B2  2FA6     MOV.L   R10,@-R15
022233B4  C9FF     DW      $C9FF
022233B6  8800     CMP/EQ  #$00,R0
022233B8  8901     BT      $022233BE
022233BA  B071     BSR     $022234A0
022233BC  4F22     STS.L   PR,@-R15    ; Push PR
022233BE  7BF0     ADD     #$F0,R11
022233C0  84EA     MOV.B   R0,@($A,R4)
022233C2  8800     CMP/EQ  #$00,R0
022233C4  8901     BT      $022233CA
022233C6  B06B     BSR     $022234A0
022233C8  4F22     STS.L   PR,@-R15    ; Push PR
022233CA  7BF0     ADD     #$F0,R11
022233CC  84E9     MOV.B   R0,@($9,R4)
022233CE  8800     CMP/EQ  #$00,R0
022233D0  8901     BT      $022233D6
022233D2  B065     BSR     $022234A0
022233D4  4F22     STS.L   PR,@-R15    ; Push PR
022233D6  7BF0     ADD     #$F0,R11
022233D8  84E8     MOV.B   R0,@($8,R4)
022233DA  8800     CMP/EQ  #$00,R0
022233DC  8901     BT      $022233E2
022233DE  B05F     BSR     $022234A0
022233E0  4F22     STS.L   PR,@-R15    ; Push PR
022233E2  6AF6     MOV.L   @R15+,R10
022233E4  67F6     MOV.L   @R15+,R7
022233E6  66F6     MOV.L   @R15+,R6
022233E8  4710     DT      R7
022233EA  8FD1     BF/S    $02223390
022233EC  7BF0     ADD     #$F0,R11
022233EE  AFD6     BRA     $0222339E
022233F0  0009     NOP
022233F2  4F22     STS.L   PR,@-R15    ; Push PR
022233F4  BFB8     BSR     $02223368
022233F6  0009     NOP
022233F8  60A2     MOV.L   @R10,R0
022233FA  D105     MOV.L   @($02223410,PC),R1
022233FC  2018     TST     R1,R0
022233FE  8B09     BF      $02223414
02223400  7AFC     ADD     #$FC,R10
02223402  4710     DT      R7
02223404  8FF8     BF/S    $022233F8
02223406  7BC0     ADD     #$C0,R11
02223408  4F26     LDS.L   @R15+,PR    ; Pop PR
0222340A  000B     RTS

; === coord_transform_triple ===
0222340C  0009     NOP
0222340E  0000     DW      $0000
02223410  FF00     DW      $FF00
02223412  FF00     DW      $FF00
02223414  D10D     MOV.L   @($0222344C,PC),R1
02223416  2109     AND     R0,R1
02223418  2A12     MOV.L   R1,@R10
0222341A  7AFC     ADD     #$FC,R10
0222341C  4001     SHLR    R0
0222341E  1E02     MOV.L   R0,@($8,R14)
02223420  2F66     MOV.L   R6,@-R15
02223422  2F76     MOV.L   R7,@-R15
02223424  2FA6     MOV.L   R10,@-R15
02223426  84EA     MOV.B   R0,@($A,R4)
02223428  8800     CMP/EQ  #$00,R0
0222342A  8901     BT      $02223430
0222342C  B038     BSR     $022234A0
0222342E  4F22     STS.L   PR,@-R15    ; Push PR
02223430  7BE0     ADD     #$E0,R11
02223432  84E8     MOV.B   R0,@($8,R4)
02223434  8800     CMP/EQ  #$00,R0
02223436  8901     BT      $0222343C
02223438  B032     BSR     $022234A0
0222343A  4F22     STS.L   PR,@-R15    ; Push PR
0222343C  6AF6     MOV.L   @R15+,R10
0222343E  67F6     MOV.L   @R15+,R7
02223440  66F6     MOV.L   @R15+,R6
02223442  4710     DT      R7
02223444  8FD8     BF/S    $022233F8
02223446  7BE0     ADD     #$E0,R11
02223448  AFDE     BRA     $02223408
0222344A  0009     NOP
0222344C  00FF     MAC.L   @R15+,@R0+
0222344E  00FF     MAC.L   @R15+,@R0+
02223450  4F22     STS.L   PR,@-R15    ; Push PR
02223452  BF89     BSR     $02223368
02223454  0009     NOP
02223456  60A2     MOV.L   @R10,R0
02223458  8800     CMP/EQ  #$00,R0
0222345A  8B06     BF      $0222346A
0222345C  7AFC     ADD     #$FC,R10
0222345E  4710     DT      R7
02223460  8FF9     BF/S    $02223456
02223462  7BC0     ADD     #$C0,R11
02223464  4F26     LDS.L   @R15+,PR    ; Pop PR
02223466  000B     RTS

; === recursive_tree_traverse ===
02223468  0009     NOP
0222346A  E100     MOV     #$00,R1
0222346C  2A12     MOV.L   R1,@R10
0222346E  7AFC     ADD     #$FC,R10
02223470  4001     SHLR    R0
02223472  1E02     MOV.L   R0,@($8,R14)
02223474  2F66     MOV.L   R6,@-R15
02223476  2F76     MOV.L   R7,@-R15
02223478  2FA6     MOV.L   R10,@-R15
0222347A  84EB     MOV.B   R0,@($B,R4)
0222347C  8800     CMP/EQ  #$00,R0
0222347E  8901     BT      $02223484
02223480  B00E     BSR     $022234A0
02223482  4F22     STS.L   PR,@-R15    ; Push PR
02223484  7BE0     ADD     #$E0,R11
02223486  84E9     MOV.B   R0,@($9,R4)
02223488  8800     CMP/EQ  #$00,R0
0222348A  8901     BT      $02223490
0222348C  B008     BSR     $022234A0
0222348E  4F22     STS.L   PR,@-R15    ; Push PR
02223490  6AF6     MOV.L   @R15+,R10
02223492  67F6     MOV.L   @R15+,R7
02223494  66F6     MOV.L   @R15+,R6
02223496  4710     DT      R7
02223498  8FDD     BF/S    $02223456
0222349A  7BE0     ADD     #$E0,R11
0222349C  AFE2     BRA     $02223464
0222349E  0009     NOP
022234A0  2FB6     MOV.L   R11,@-R15
022234A2  61B5     MOV.W   @R11+,R1
022234A4  D807     MOV.L   @($022234C4,PC),R8
022234A6  611D     EXTU.W  R1,R1
022234A8  381C     ADD     R1,R8
022234AA  2FB6     MOV.L   R11,@-R15
022234AC  2F06     MOV.L   R0,@-R15
022234AE  B02C     BSR     $0222350A
022234B0  4F22     STS.L   PR,@-R15    ; Push PR
022234B2  60F6     MOV.L   @R15+,R0
022234B4  6BF6     MOV.L   @R15+,R11
022234B6  4010     DT      R0
022234B8  8BF3     BF      $022234A2
022234BA  6BF6     MOV.L   @R15+,R11
022234BC  4F26     LDS.L   @R15+,PR    ; Pop PR
022234BE  000B     RTS

; === transform_with_cull ===
022234C0  0009     NOP
022234C2  0000     DW      $0000
022234C4  0601     DW      $0601
022234C6  0000     DW      $0000
022234C8  4F22     STS.L   PR,@-R15    ; Push PR
022234CA  BF4D     BSR     $02223368
022234CC  0009     NOP
022234CE  2F76     MOV.L   R7,@-R15
022234D0  2F86     MOV.L   R8,@-R15
022234D2  B01A     BSR     $0222350A
022234D4  4F22     STS.L   PR,@-R15    ; Push PR
022234D6  68F6     MOV.L   @R15+,R8
022234D8  67F6     MOV.L   @R15+,R7
022234DA  8581     MOV.B   R0,@($1,R5)
022234DC  C801     DW      $C801
022234DE  8F01     BF/S    $022234E4
022234E0  7810     ADD     #$10,R8
022234E2  7804     ADD     #$04,R8
022234E4  4710     DT      R7
022234E6  8BF2     BF      $022234CE
022234E8  4F26     LDS.L   @R15+,PR    ; Pop PR
022234EA  000B     RTS

; === simple_transform ===
022234EC  0009     NOP
022234EE  D005     MOV.L   @($02223504,PC),R0
022234F0  51E9     MOV.L   @($24,R14),R1
022234F2  210B     OR      R0,R1
022234F4  851E     MOV.B   R0,@($E,R5)
022234F6  C808     DW      $C808
022234F8  89FC     BT      $022234F4
022234FA  51E9     MOV.L   @($24,R14),R1
022234FC  E006     MOV     #$06,R0
022234FE  000B     RTS

; === frustum_cull_dispatch ===
02223500  811E     MOV.B   R0,@($E,R1)
02223502  0000     DW      $0000
02223504  2000     MOV.B   R0,@R0
02223506  0000     DW      $0000
02223508  4F22     STS.L   PR,@-R15    ; Push PR
0222350A  DE12     MOV.L   @($02223554,PC),R14
0222350C  D912     MOV.L   @($02223558,PC),R9
0222350E  B072     BSR     $022235F6
02223510  7802     ADD     #$02,R8
02223512  B097     BSR     $02223644
02223514  0009     NOP
02223516  53E7     MOV.L   @($1C,R14),R3
02223518  54E8     MOV.L   @($20,R14),R4
0222351A  3317     CMP/GT  R1,R3
0222351C  893C     BT      $02223598
0222351E  3247     CMP/GT  R4,R2
02223520  893A     BT      $02223598
02223522  B0B1     BSR     $02223688
02223524  0009     NOP
02223526  53E5     MOV.L   @($14,R14),R3
02223528  54E6     MOV.L   @($18,R14),R4
0222352A  3317     CMP/GT  R1,R3
0222352C  8918     BT      $02223560
0222352E  3247     CMP/GT  R4,R2
02223530  8916     BT      $02223560
02223532  3210     CMP/EQ  R1,R2
02223534  895C     BT      $022235F0
02223536  56E9     MOV.L   @($24,R14),R6
02223538  D308     MOV.L   @($0222355C,PC),R3
0222353A  236B     OR      R6,R3
0222353C  853E     MOV.B   R0,@($E,R5)
0222353E  C808     DW      $C808
02223540  89FC     BT      $0222353C
02223542  6963     MOV     R6,R9
02223544  B0C9     BSR     $022236DA
02223546  EC04     MOV     #$04,R12
02223548  6963     MOV     R6,R9
0222354A  7920     ADD     #$20,R9
0222354C  B0C5     BSR     $022236DA
0222354E  ECFC     MOV     #$FC,R12
02223550  A223     BRA     $0222399A
02223552  4F26     LDS.L   @R15+,PR    ; Pop PR
02223554  C000     DW      $C000
02223556  0700     DW      $0700
02223558  C000     DW      $C000
0222355A  0740     DW      $0740
0222355C  2000     MOV.B   R0,@R0
0222355E  0000     DW      $0000
02223560  3237     CMP/GT  R3,R2
02223562  8B45     BF      $022235F0
02223564  3147     CMP/GT  R4,R1
02223566  8943     BT      $022235F0
02223568  3210     CMP/EQ  R1,R2
0222356A  8941     BT      $022235F0
0222356C  56E9     MOV.L   @($24,R14),R6
0222356E  D309     MOV.L   @($02223594,PC),R3
02223570  236B     OR      R6,R3
02223572  853E     MOV.B   R0,@($E,R5)
02223574  C808     DW      $C808
02223576  89FC     BT      $02223572
02223578  2F66     MOV.L   R6,@-R15
0222357A  6963     MOV     R6,R9
0222357C  B0BD     BSR     $022236FA
0222357E  EC04     MOV     #$04,R12
02223580  66F6     MOV.L   @R15+,R6
02223582  2F66     MOV.L   R6,@-R15
02223584  6963     MOV     R6,R9
02223586  7920     ADD     #$20,R9
02223588  B0B7     BSR     $022236FA
0222358A  ECFC     MOV     #$FC,R12
0222358C  66F6     MOV.L   @R15+,R6
0222358E  A204     BRA     $0222399A
02223590  4F26     LDS.L   @R15+,PR    ; Pop PR
02223592  0000     DW      $0000
02223594  2000     MOV.B   R0,@R0
02223596  0000     DW      $0000
02223598  B076     BSR     $02223688
0222359A  0009     NOP
0222359C  53E5     MOV.L   @($14,R14),R3
0222359E  54E6     MOV.L   @($18,R14),R4
022235A0  3237     CMP/GT  R3,R2
022235A2  8B25     BF      $022235F0
022235A4  3147     CMP/GT  R4,R1
022235A6  8923     BT      $022235F0
022235A8  3210     CMP/EQ  R1,R2
022235AA  8921     BT      $022235F0
022235AC  D90C     MOV.L   @($022235E0,PC),R9
022235AE  B0A4     BSR     $022236FA
022235B0  EC04     MOV     #$04,R12
022235B2  D90C     MOV.L   @($022235E4,PC),R9
022235B4  B0A1     BSR     $022236FA
022235B6  ECFC     MOV     #$FC,R12
022235B8  D809     MOV.L   @($022235E0,PC),R8
022235BA  D90B     MOV.L   @($022235E8,PC),R9
022235BC  B10C     BSR     $022237D8
022235BE  4F22     STS.L   PR,@-R15    ; Push PR
022235C0  4A28     SHLL16  R10
022235C2  4A08     SHLL2   R10
022235C4  4B08     SHLL2   R11
022235C6  2BAB     OR      R10,R11
022235C8  1EB1     MOV.L   R11,@($4,R14)
022235CA  D806     MOV.L   @($022235E4,PC),R8
022235CC  D907     MOV.L   @($022235EC,PC),R9
022235CE  B103     BSR     $022237D8
022235D0  4F22     STS.L   PR,@-R15    ; Push PR
022235D2  4A28     SHLL16  R10
022235D4  2BAB     OR      R10,R11
022235D6  5AE1     MOV.L   @($4,R14),R10
022235D8  2BAB     OR      R10,R11
022235DA  1EB1     MOV.L   R11,@($4,R14)
022235DC  A13F     BRA     $0222385E
022235DE  4F26     LDS.L   @R15+,PR    ; Pop PR
022235E0  C000     DW      $C000
022235E2  0780     DW      $0780
022235E4  C000     DW      $C000
022235E6  07A0     DW      $07A0
022235E8  C000     DW      $C000
022235EA  07C0     DW      $07C0
022235EC  C000     DW      $C000
022235EE  07E0     DW      $07E0
022235F0  4F26     LDS.L   @R15+,PR    ; Pop PR
022235F2  000B     RTS

; === render_param_setup ===
022235F4  0009     NOP
022235F6  51E3     MOV.L   @($C,R14),R1
022235F8  52E4     MOV.L   @($10,R14),R2
022235FA  6085     MOV.W   @R8+,R0
022235FC  81E0     MOV.B   R0,@($0,R1)
022235FE  6085     MOV.W   @R8+,R0
02223600  6485     MOV.W   @R8+,R4
02223602  301C     ADD     R1,R0
02223604  8190     MOV.B   R0,@($0,R1)
02223606  3428     SUB     R2,R4
02223608  604B     NEG     R4,R0
0222360A  8191     MOV.B   R0,@($1,R1)
0222360C  6085     MOV.W   @R8+,R0
0222360E  6485     MOV.W   @R8+,R4
02223610  301C     ADD     R1,R0
02223612  8192     MOV.B   R0,@($2,R1)
02223614  3428     SUB     R2,R4
02223616  604B     NEG     R4,R0
02223618  8193     MOV.B   R0,@($3,R1)
0222361A  6085     MOV.W   @R8+,R0
0222361C  6485     MOV.W   @R8+,R4
0222361E  301C     ADD     R1,R0
02223620  8194     MOV.B   R0,@($4,R1)
02223622  3428     SUB     R2,R4
02223624  604B     NEG     R4,R0
02223626  8195     MOV.B   R0,@($5,R1)
02223628  85E0     MOV.B   R0,@($0,R5)
0222362A  C801     DW      $C801
0222362C  8902     BT      $02223634
0222362E  5092     MOV.L   @($8,R9),R0
02223630  000B     RTS

; === param_helper ===
02223632  1903     MOV.L   R0,@($C,R9)
02223634  6085     MOV.W   @R8+,R0
02223636  6485     MOV.W   @R8+,R4
02223638  301C     ADD     R1,R0
0222363A  8196     MOV.B   R0,@($6,R1)
0222363C  3428     SUB     R2,R4
0222363E  604B     NEG     R4,R0
02223640  000B     RTS

; === coord_boundary_clamp ===
02223642  8197     MOV.B   R0,@($7,R1)
02223644  D804     MOV.L   @($02223658,PC),R8
02223646  8580     MOV.B   R0,@($0,R5)
02223648  6103     MOV     R0,R1
0222364A  6203     MOV     R0,R2
0222364C  8582     MOV.B   R0,@($2,R5)
0222364E  3013     CMP/GE  R1,R0
02223650  8904     BT      $0222365C
02223652  A006     BRA     $02223662
02223654  6103     MOV     R0,R1
02223656  0000     DW      $0000
02223658  C000     DW      $C000
0222365A  0740     DW      $0740
0222365C  3203     CMP/GE  R0,R2
0222365E  8900     BT      $02223662
02223660  6203     MOV     R0,R2
02223662  8584     MOV.B   R0,@($4,R5)
02223664  3013     CMP/GE  R1,R0
02223666  8901     BT      $0222366C
02223668  A003     BRA     $02223672
0222366A  6103     MOV     R0,R1
0222366C  3203     CMP/GE  R0,R2
0222366E  8900     BT      $02223672
02223670  6203     MOV     R0,R2
02223672  8586     MOV.B   R0,@($6,R5)
02223674  3013     CMP/GE  R1,R0
02223676  8901     BT      $0222367C
02223678  000B     RTS

; === conditional_value_assign ===
0222367A  6103     MOV     R0,R1
0222367C  3203     CMP/GE  R0,R2
0222367E  8901     BT      $02223684
02223680  000B     RTS

; === register_copy ===
02223682  6203     MOV     R0,R2
02223684  000B     RTS

; === region_code_generate ===
02223686  0009     NOP
02223688  D805     MOV.L   @($022236A0,PC),R8
0222368A  8580     MOV.B   R0,@($0,R5)
0222368C  EA00     MOV     #$00,R10
0222368E  EB00     MOV     #$00,R11
02223690  6103     MOV     R0,R1
02223692  6203     MOV     R0,R2
02223694  8582     MOV.B   R0,@($2,R5)
02223696  3013     CMP/GE  R1,R0
02223698  8904     BT      $022236A4
0222369A  EA04     MOV     #$04,R10
0222369C  A006     BRA     $022236AC
0222369E  6103     MOV     R0,R1
022236A0  C000     DW      $C000
022236A2  0742     DW      $0742
022236A4  3203     CMP/GE  R0,R2
022236A6  8901     BT      $022236AC
022236A8  EB04     MOV     #$04,R11
022236AA  6203     MOV     R0,R2
022236AC  8584     MOV.B   R0,@($4,R5)
022236AE  3013     CMP/GE  R1,R0
022236B0  8902     BT      $022236B8
022236B2  EA08     MOV     #$08,R10
022236B4  A004     BRA     $022236C0
022236B6  6103     MOV     R0,R1
022236B8  3203     CMP/GE  R0,R2
022236BA  8901     BT      $022236C0
022236BC  EB08     MOV     #$08,R11
022236BE  6203     MOV     R0,R2
022236C0  8586     MOV.B   R0,@($6,R5)
022236C2  3013     CMP/GE  R1,R0
022236C4  8902     BT      $022236CC
022236C6  EA0C     MOV     #$0C,R10
022236C8  000B     RTS

; === conditional_param_assign ===
022236CA  6103     MOV     R0,R1
022236CC  3203     CMP/GE  R0,R2
022236CE  8902     BT      $022236D6
022236D0  EB0C     MOV     #$0C,R11
022236D2  000B     RTS

; === register_copy_v2 ===
022236D4  6203     MOV     R0,R2
022236D6  000B     RTS

; === scanline_fill_loop ===
022236D8  0009     NOP
022236DA  D805     MOV.L   @($022236F0,PC),R8
022236DC  60A3     MOV     R10,R0
022236DE  018E     DW      $018E
022236E0  2912     MOV.L   R1,@R9
022236E2  30B0     CMP/EQ  R11,R0
022236E4  8D06     BT/S    $022236F4
022236E6  7904     ADD     #$04,R9
022236E8  30CC     ADD     R12,R0
022236EA  AFF8     BRA     $022236DE
022236EC  C90C     DW      $C90C
022236EE  0000     DW      $0000
022236F0  C000     DW      $C000
022236F2  0740     DW      $0740
022236F4  E0FF     MOV     #$FF,R0
022236F6  000B     RTS

; === polygon_scanline_gen ===
022236F8  2902     MOV.L   R0,@R9
022236FA  D80B     MOV.L   @($02223728,PC),R8
022236FC  60A3     MOV     R10,R0
022236FE  53E5     MOV.L   @($14,R14),R3
02223700  018E     DW      $018E
02223702  641F     EXTS.W  R1,R4
02223704  3433     CMP/GE  R3,R4
02223706  8911     BT      $0222372C
02223708  6213     MOV     R1,R2
0222370A  30CC     ADD     R12,R0
0222370C  C90C     DW      $C90C
0222370E  018E     DW      $018E
02223710  641F     EXTS.W  R1,R4
02223712  3433     CMP/GE  R3,R4
02223714  8BF8     BF      $02223708
02223716  4F22     STS.L   PR,@-R15    ; Push PR
02223718  B021     BSR     $0222375E
0222371A  0009     NOP
0222371C  4F26     LDS.L   @R15+,PR    ; Pop PR
0222371E  2932     MOV.L   R3,@R9
02223720  7904     ADD     #$04,R9
02223722  A008     BRA     $02223736
02223724  53E6     MOV.L   @($18,R14),R3
02223726  0000     DW      $0000
02223728  C000     DW      $C000
0222372A  0740     DW      $0740
0222372C  2912     MOV.L   R1,@R9
0222372E  7904     ADD     #$04,R9
02223730  53E6     MOV.L   @($18,R14),R3
02223732  30CC     ADD     R12,R0
02223734  C90C     DW      $C90C
02223736  6213     MOV     R1,R2
02223738  018E     DW      $018E
0222373A  641F     EXTS.W  R1,R4
0222373C  3437     CMP/GT  R3,R4
0222373E  8905     BT      $0222374C
02223740  2912     MOV.L   R1,@R9
02223742  7904     ADD     #$04,R9
02223744  30B0     CMP/EQ  R11,R0
02223746  8907     BT      $02223758
02223748  AFF4     BRA     $02223734
0222374A  30CC     ADD     R12,R0
0222374C  4F22     STS.L   PR,@-R15    ; Push PR
0222374E  B006     BSR     $0222375E
02223750  0009     NOP
02223752  4F26     LDS.L   @R15+,PR    ; Pop PR
02223754  2932     MOV.L   R3,@R9
02223756  7904     ADD     #$04,R9
02223758  E0FF     MOV     #$FF,R0
0222375A  000B     RTS

; === bresenham_rasterize ===
0222375C  2902     MOV.L   R0,@R9
0222375E  641F     EXTS.W  R1,R4
02223760  652F     EXTS.W  R2,R5
02223762  3543     CMP/GE  R4,R5
02223764  8902     BT      $0222376C
02223766  6413     MOV     R1,R4
02223768  6123     MOV     R2,R1
0222376A  6243     MOV     R4,R2
0222376C  6419     SWAP.W  R1,R4
0222376E  644F     EXTS.W  R4,R4
02223770  6529     SWAP.W  R2,R5
02223772  655F     EXTS.W  R5,R5
02223774  3458     SUB     R5,R4
02223776  9718     MOV.W   @(${target:08X},PC),R7
02223778  651F     EXTS.W  R1,R5
0222377A  662F     EXTS.W  R2,R6
0222377C  3568     SUB     R6,R5
0222377E  3757     CMP/GT  R5,R7
02223780  8916     BT      $022237B0
02223782  D70A     MOV.L   @($022237AC,PC),R7
02223784  4500     SHLL    R5
02223786  375C     ADD     R5,R7
02223788  6771     MOV.W   @R7,R7
0222378A  274F     MULS.W  R4,R7
0222378C  651F     EXTS.W  R1,R5
0222378E  673F     EXTS.W  R3,R7
02223790  041A     STS     MACL,R4
02223792  3758     SUB     R5,R7
02223794  4728     SHLL16  R7
02223796  4408     SHLL2   R4
02223798  374D     DW      $374D
0222379A  633D     EXTU.W  R3,R3
0222379C  6419     SWAP.W  R1,R4
0222379E  070A     STS     MACH,R7
022237A0  644F     EXTS.W  R4,R4
022237A2  374C     ADD     R4,R7
022237A4  4728     SHLL16  R7
022237A6  000B     RTS

; === render_param_fetch ===
022237A8  237B     OR      R7,R3
022237AA  FF01     DW      $FF01
022237AC  0600     DW      $0600
022237AE  48D0     DW      $48D0
022237B0  651F     EXTS.W  R1,R5
022237B2  673F     EXTS.W  R3,R7
022237B4  3758     SUB     R5,R7
022237B6  247F     MULS.W  R7,R4
022237B8  9D0C     MOV.W   @(${target:08X},PC),R13
022237BA  662F     EXTS.W  R2,R6
022237BC  3568     SUB     R6,R5
022237BE  071A     STS     MACL,R7
022237C0  1D50     MOV.L   R5,@($0,R13)
022237C2  1D71     MOV.L   R7,@($4,R13)
022237C4  633D     EXTU.W  R3,R3
022237C6  6419     SWAP.W  R1,R4
022237C8  644F     EXTS.W  R4,R4
022237CA  57D7     MOV.L   @($1C,R13),R7
022237CC  374C     ADD     R4,R7
022237CE  4728     SHLL16  R7
022237D0  000B     RTS

; === conditional_block_proc ===
022237D2  237B     OR      R7,R3
022237D4  FF00     DW      $FF00
022237D6  4F22     STS.L   PR,@-R15    ; Push PR
022237D8  B021     BSR     $0222381E
022237DA  6381     MOV.W   @R8,R3
022237DC  6A03     MOV     R0,R10
022237DE  6C03     MOV     R0,R12
022237E0  6386     MOV.L   @R8+,R3
022237E2  8B01     BF      $022237E8
022237E4  2932     MOV.L   R3,@R9
022237E6  7904     ADD     #$04,R9
022237E8  B019     BSR     $0222381E
022237EA  6381     MOV.W   @R8,R3
022237EC  6B03     MOV     R0,R11
022237EE  20C8     TST     R12,R0
022237F0  8B0C     BF      $0222380C
022237F2  20CB     OR      R12,R0
022237F4  C806     DW      $C806
022237F6  8906     BT      $02223806
022237F8  B01C     BSR     $02223834
022237FA  60C3     MOV     R12,R0
022237FC  B01A     BSR     $02223834
022237FE  60B3     MOV     R11,R0
02223800  60B3     MOV     R11,R0
02223802  C806     DW      $C806
02223804  8B02     BF      $0222380C
02223806  6382     MOV.L   @R8,R3
02223808  2932     MOV.L   R3,@R9
0222380A  7904     ADD     #$04,R9
0222380C  7804     ADD     #$04,R8
0222380E  6CB3     MOV     R11,R12
02223810  6082     MOV.L   @R8,R0
02223812  88FF     CMP/EQ  #$FF,R0
02223814  8BE8     BF      $022237E8
02223816  E0FF     MOV     #$FF,R0
02223818  4F26     LDS.L   @R15+,PR    ; Pop PR
0222381A  000B     RTS

; === bounds_validate ===
0222381C  2902     MOV.L   R0,@R9
0222381E  51E7     MOV.L   @($1C,R14),R1
02223820  52E8     MOV.L   @($20,R14),R2
02223822  E000     MOV     #$00,R0
02223824  3313     CMP/GE  R1,R3
02223826  8900     BT      $0222382A
02223828  CB04     DW      $CB04
0222382A  3233     CMP/GE  R3,R2
0222382C  8900     BT      $02223830
0222382E  CB02     DW      $CB02
02223830  000B     RTS
02223832  C806     DW      $C806

; === zero_value_check ===
02223834  8800     CMP/EQ  #$00,R0
02223836  8B01     BF      $0222383C
02223838  000B     RTS
0222383A  0009     NOP
0222383C  8802     CMP/EQ  #$02,R0
0222383E  53E8     MOV.L   @($20,R14),R3
02223840  8900     BT      $02223844
02223842  53E7     MOV.L   @($1C,R14),R3
02223844  4F22     STS.L   PR,@-R15    ; Push PR
02223846  6282     MOV.L   @R8,R2
02223848  6083     MOV     R8,R0
0222384A  70FC     ADD     #$FC,R0
0222384C  6102     MOV.L   @R0,R1
0222384E  6229     SWAP.W  R2,R2
02223850  BF85     BSR     $0222375E
02223852  6119     SWAP.W  R1,R1
02223854  6339     SWAP.W  R3,R3
02223856  2932     MOV.L   R3,@R9
02223858  4F26     LDS.L   @R15+,PR    ; Pop PR
0222385A  000B     RTS

; === memory_fill_init ===
0222385C  7904     ADD     #$04,R9
0222385E  D811     MOV.L   @($022238A4,PC),R8
02223860  D911     MOV.L   @($022238A8,PC),R9
02223862  56E9     MOV.L   @($24,R14),R6
02223864  D111     MOV.L   @($022238AC,PC),R1
02223866  216B     OR      R6,R1
02223868  851E     MOV.B   R0,@($E,R5)
0222386A  C808     DW      $C808
0222386C  89FC     BT      $02223868
0222386E  6A63     MOV     R6,R10
02223870  6B63     MOV     R6,R11
02223872  7B20     ADD     #$20,R11
02223874  85E2     MOV.B   R0,@($2,R5)
02223876  8800     CMP/EQ  #$00,R0
02223878  8D1A     BT/S    $022238B0
0222387A  6303     MOV     R0,R3
0222387C  C702     DW      $C702
0222387E  51EA     MOV.L   @($28,R14),R1
02223880  003D     DW      $003D
02223882  0023     DW      $0023
02223884  52EB     MOV.L   @($2C,R14),R2
02223886  0009     NOP
02223888  002A     STS     PR,R0
0222388A  0042     DW      $0042
0222388C  0048     DW      $0048
0222388E  004E     DW      $004E
02223890  0052     DW      $0052
02223892  0058     DW      $0058
02223894  007E     DW      $007E
02223896  004E     DW      $004E
02223898  0088     DW      $0088
0222389A  008E     DW      $008E
0222389C  0058     DW      $0058
0222389E  A007     BRA     $022238B0
022238A0  0009     NOP
022238A2  0000     DW      $0000
022238A4  C000     DW      $C000
022238A6  07C0     DW      $07C0
022238A8  C000     DW      $C000
022238AA  07E0     DW      $07E0
022238AC  2000     MOV.B   R0,@R0
022238AE  0000     DW      $0000
022238B0  6086     MOV.L   @R8+,R0
022238B2  88FF     CMP/EQ  #$FF,R0
022238B4  8902     BT      $022238BC
022238B6  2A02     MOV.L   R0,@R10
022238B8  AFFA     BRA     $022238B0
022238BA  7A04     ADD     #$04,R10
022238BC  6096     MOV.L   @R9+,R0
022238BE  88FF     CMP/EQ  #$FF,R0
022238C0  892D     BT      $0222391E
022238C2  2B02     MOV.L   R0,@R11
022238C4  AFFA     BRA     $022238BC
022238C6  7B04     ADD     #$04,R11
022238C8  2B22     MOV.L   R2,@R11
022238CA  AFF1     BRA     $022238B0
022238CC  7B04     ADD     #$04,R11
022238CE  2B12     MOV.L   R1,@R11
022238D0  AFEE     BRA     $022238B0
022238D2  7B04     ADD     #$04,R11
022238D4  000B     RTS

; === block_fill_loop ===
022238D6  0009     NOP
022238D8  2A22     MOV.L   R2,@R10
022238DA  AFE9     BRA     $022238B0
022238DC  7A04     ADD     #$04,R10
022238DE  E0FF     MOV     #$FF,R0
022238E0  6382     MOV.L   @R8,R3
022238E2  3300     CMP/EQ  R0,R3
022238E4  8906     BT      $022238F4
022238E6  6492     MOV.L   @R9,R4
022238E8  3400     CMP/EQ  R0,R4
022238EA  8907     BT      $022238FC
022238EC  633F     EXTS.W  R3,R3
022238EE  644F     EXTS.W  R4,R4
022238F0  3437     CMP/GT  R3,R4
022238F2  8903     BT      $022238FC
022238F4  6092     MOV.L   @R9,R0
022238F6  2A02     MOV.L   R0,@R10
022238F8  AFDA     BRA     $022238B0
022238FA  7A04     ADD     #$04,R10
022238FC  6082     MOV.L   @R8,R0
022238FE  2B02     MOV.L   R0,@R11
02223900  AFD6     BRA     $022238B0
02223902  7B04     ADD     #$04,R11
02223904  2A22     MOV.L   R2,@R10
02223906  7A04     ADD     #$04,R10
02223908  2B12     MOV.L   R1,@R11
0222390A  AFD1     BRA     $022238B0
0222390C  7B04     ADD     #$04,R11
0222390E  2A12     MOV.L   R1,@R10
02223910  AFCE     BRA     $022238B0
02223912  7A04     ADD     #$04,R10
02223914  2A12     MOV.L   R1,@R10
02223916  7A04     ADD     #$04,R10
02223918  2B22     MOV.L   R2,@R11
0222391A  AFC9     BRA     $022238B0
0222391C  7B04     ADD     #$04,R11
0222391E  85E3     MOV.B   R0,@($3,R5)
02223920  8800     CMP/EQ  #$00,R0
02223922  8D10     BT/S    $02223946
02223924  6303     MOV     R0,R3
02223926  C702     DW      $C702
02223928  51EC     MOV.L   @($30,R14),R1
0222392A  003D     DW      $003D
0222392C  0023     DW      $0023
0222392E  52ED     MOV.L   @($34,R14),R2
02223930  0016     DW      $0016
02223932  001E     DW      $001E
02223934  0024     DW      $0024
02223936  002A     STS     PR,R0
02223938  002E     DW      $002E
0222393A  0034     DW      $0034
0222393C  0050     DW      $0050
0222393E  002A     STS     PR,R0
02223940  005A     DW      $005A
02223942  0060     DW      $0060
02223944  0034     DW      $0034
02223946  E0FF     MOV     #$FF,R0
02223948  2A02     MOV.L   R0,@R10
0222394A  A026     BRA     $0222399A
0222394C  2B02     MOV.L   R0,@R11
0222394E  2B22     MOV.L   R2,@R11
02223950  AFF9     BRA     $02223946
02223952  7B04     ADD     #$04,R11
02223954  2B12     MOV.L   R1,@R11
02223956  AFF6     BRA     $02223946
02223958  7B04     ADD     #$04,R11
0222395A  000B     RTS

; === memory_copy_setup ===
0222395C  0009     NOP
0222395E  2A22     MOV.L   R2,@R10
02223960  AFF1     BRA     $02223946
02223962  7A04     ADD     #$04,R10
02223964  7AFC     ADD     #$FC,R10
02223966  7BFC     ADD     #$FC,R11
02223968  63A6     MOV.L   @R10+,R3
0222396A  64B6     MOV.L   @R11+,R4
0222396C  613F     EXTS.W  R3,R1
0222396E  624F     EXTS.W  R4,R2
02223970  3217     CMP/GT  R1,R2
02223972  8902     BT      $0222397A
02223974  2B32     MOV.L   R3,@R11
02223976  AFE6     BRA     $02223946
02223978  7B04     ADD     #$04,R11
0222397A  2A42     MOV.L   R4,@R10
0222397C  AFE3     BRA     $02223946
0222397E  7A04     ADD     #$04,R10
02223980  2A22     MOV.L   R2,@R10
02223982  7A04     ADD     #$04,R10
02223984  2B12     MOV.L   R1,@R11
02223986  AFDE     BRA     $02223946
02223988  7B04     ADD     #$04,R11
0222398A  2A12     MOV.L   R1,@R10
0222398C  AFDB     BRA     $02223946
0222398E  7A04     ADD     #$04,R10
02223990  2A12     MOV.L   R1,@R10
02223992  7A04     ADD     #$04,R10
02223994  2B22     MOV.L   R2,@R11
02223996  AFD6     BRA     $02223946
02223998  7B04     ADD     #$04,R11
0222399A  85E0     MOV.B   R0,@($0,R5)
0222399C  816F     MOV.B   R0,@($F,R1)
0222399E  E004     MOV     #$04,R0
022239A0  816E     MOV.B   R0,@($E,R1)
022239A2  9003     MOV.W   @(${target:08X},PC),R0
022239A4  7640     ADD     #$40,R6
022239A6  2609     AND     R0,R6
022239A8  000B     RTS

; === recursive_gbr_copy ===
022239AA  1E69     MOV.L   R6,@($24,R14)
022239AC  BFFF     BSR     $022239AE
022239AE  0009     NOP
022239B0  DE06     MOV.L   @($022239CC,PC),R14
022239B2  C708     DW      $C708
022239B4  E70E     MOV     #$0E,R7
022239B6  6DE3     MOV     R14,R13
022239B8  7D0C     ADD     #$0C,R13
022239BA  6106     MOV.L   @R0+,R1
022239BC  2D12     MOV.L   R1,@R13
022239BE  4710     DT      R7
022239C0  8FFB     BF/S    $022239BA
022239C2  7D04     ADD     #$04,R13
022239C4  D002     MOV.L   @($022239D0,PC),R0
022239C6  401E     DW      $401E
022239C8  000B     RTS

; === multi_level_dispatch ===
022239CA  0009     NOP
022239CC  C000     DW      $C000
022239CE  0700     DW      $0700
022239D0  2000     MOV.B   R0,@R0
022239D2  4100     SHLL    R1
022239D4  0000     DW      $0000
022239D6  00A0     DW      $00A0
022239D8  0000     DW      $0000
022239DA  0070     DW      $0070
022239DC  0000     DW      $0000
022239DE  0010     DW      $0010
022239E0  0000     DW      $0000
022239E2  00CF     MAC.L   @R12+,@R0+
022239E4  0000     DW      $0000
022239E6  0000     DW      $0000
022239E8  0000     DW      $0000
022239EA  013F     MAC.L   @R3+,@R1+
022239EC  0601     DW      $0601
022239EE  8000     MOV.B   R0,@($0,R0)
022239F0  4F22     STS.L   PR,@-R15    ; Push PR
022239F2  D00E     MOV.L   @($02223A2C,PC),R0
022239F4  400B     JSR     @R0
022239F6  0009     NOP
022239F8  B02B     BSR     $02223A52
022239FA  0009     NOP
022239FC  BFD8     BSR     $022239B0
022239FE  0009     NOP
02223A00  D00B     MOV.L   @($02223A30,PC),R0
02223A02  51E9     MOV.L   @($24,R14),R1
02223A04  210B     OR      R0,R1
02223A06  851E     MOV.B   R0,@($E,R5)
02223A08  C804     DW      $C804
02223A0A  891D     BT      $02223A48
02223A0C  C802     DW      $C802
02223A0E  8B13     BF      $02223A38
02223A10  D008     MOV.L   @($02223A34,PC),R0
02223A12  400B     JSR     @R0
02223A14  2FE6     MOV.L   R14,@-R15
02223A16  6EF6     MOV.L   @R15+,R14
02223A18  51E9     MOV.L   @($24,R14),R1
02223A1A  E008     MOV     #$08,R0
02223A1C  811E     MOV.B   R0,@($E,R1)
02223A1E  9004     MOV.W   @(${target:08X},PC),R0
02223A20  51E9     MOV.L   @($24,R14),R1
02223A22  7140     ADD     #$40,R1
02223A24  2109     AND     R0,R1
02223A26  AFEB     BRA     $02223A00
02223A28  1E19     MOV.L   R1,@($24,R14)
02223A2A  BFFF     BSR     $02223A2C
02223A2C  0600     DW      $0600
02223A2E  45CC     DW      $45CC
02223A30  2000     MOV.B   R0,@R0
02223A32  0000     DW      $0000
02223A34  C000     DW      $C000
02223A36  0000     DW      $0000
02223A38  9003     MOV.W   @(${target:08X},PC),R0
02223A3A  811E     MOV.B   R0,@($E,R1)
02223A3C  D001     MOV.L   @($02223A44,PC),R0
02223A3E  402B     JMP     @R0
02223A40  4F26     LDS.L   @R15+,PR    ; Pop PR
02223A42  AB00     BRA     $02223046
02223A44  0600     DW      $0600
02223A46  442C     DW      $442C
02223A48  E710     MOV     #$10,R7
02223A4A  4710     DT      R7
02223A4C  8BFD     BF      $02223A4A
02223A4E  AFDA     BRA     $02223A06
02223A50  0009     NOP
02223A52  D105     MOV.L   @($02223A68,PC),R1
02223A54  D005     MOV.L   @($02223A6C,PC),R0
02223A56  9706     MOV.W   @(${target:08X},PC),R7
02223A58  6206     MOV.L   @R0+,R2
02223A5A  2122     MOV.L   R2,@R1
02223A5C  4710     DT      R7
02223A5E  8FFB     BF/S    $02223A58
02223A60  7104     ADD     #$04,R1
02223A62  000B     RTS
02223A64  0009     NOP
02223A66  0091     DW      $0091
02223A68  C000     DW      $C000
02223A6A  0000     DW      $0000
02223A6C  0600     DW      $0600
02223A6E  3A70     CMP/EQ  R7,R10
02223A70  4F22     STS.L   PR,@-R15    ; Push PR
02223A72  D121     MOV.L   @($02223AF8,PC),R1
02223A74  58E9     MOV.L   @($24,R14),R8
02223A76  E000     MOV     #$00,R0
02223A78  218B     OR      R8,R1
02223A7A  2102     MOV.L   R0,@R1
02223A7C  1104     MOV.L   R0,@($10,R1)
02223A7E  1108     MOV.L   R0,@($20,R1)
02223A80  110C     MOV.L   R0,@($30,R1)
02223A82  6983     MOV     R8,R9
02223A84  7920     ADD     #$20,R9
02223A86  0009     NOP
02223A88  0009     NOP
02223A8A  0009     NOP
02223A8C  0009     NOP
02223A8E  6185     MOV.W   @R8+,R1
02223A90  6285     MOV.W   @R8+,R2
02223A92  4111     CMP/PZ  R1
02223A94  8B50     BF      $02223B38
02223A96  8581     MOV.B   R0,@($1,R5)
02223A98  6523     MOV     R2,R5
02223A9A  3200     CMP/EQ  R0,R2
02223A9C  89F7     BT      $02223A8E
02223A9E  3208     SUB     R0,R2
02223AA0  4215     CMP/PL  R2
02223AA2  8949     BT      $02223B38
02223AA4  D015     MOV.L   @($02223AFC,PC),R0
02223AA6  662B     NEG     R2,R6
02223AA8  4200     SHLL    R2
02223AAA  032D     DW      $032D
02223AAC  8580     MOV.B   R0,@($0,R5)
02223AAE  6C13     MOV     R1,R12
02223AB0  4C28     SHLL16  R12
02223AB2  3108     SUB     R0,R1
02223AB4  231F     MULS.W  R1,R3
02223AB6  6195     MOV.W   @R9+,R1
02223AB8  6295     MOV.W   @R9+,R2
02223ABA  4111     CMP/PZ  R1
02223ABC  8B3C     BF      $02223B38
02223ABE  8591     MOV.B   R0,@($1,R5)
02223AC0  3200     CMP/EQ  R0,R2
02223AC2  89F8     BT      $02223AB6
02223AC4  3208     SUB     R0,R2
02223AC6  4215     CMP/PL  R2
02223AC8  8936     BT      $02223B38
02223ACA  0A1A     STS     MACL,R10
02223ACC  4A08     SHLL2   R10
02223ACE  D00B     MOV.L   @($02223AFC,PC),R0
02223AD0  672B     NEG     R2,R7
02223AD2  4200     SHLL    R2
02223AD4  032D     DW      $032D
02223AD6  8590     MOV.B   R0,@($0,R5)
02223AD8  6D13     MOV     R1,R13
02223ADA  4D28     SHLL16  R13
02223ADC  3108     SUB     R0,R1
02223ADE  231F     MULS.W  R1,R3
02223AE0  D007     MOV.L   @($02223B00,PC),R0
02223AE2  2C0B     OR      R0,R12
02223AE4  2D0B     OR      R0,R13
02223AE6  0B1A     STS     MACL,R11
02223AE8  4B08     SHLL2   R11
02223AEA  3DC0     CMP/EQ  R12,R13
02223AEC  890A     BT      $02223B04
02223AEE  3DC7     CMP/GT  R12,R13
02223AF0  8916     BT      $02223B20
02223AF2  A00A     BRA     $02223B0A
02223AF4  6063     MOV     R6,R0
02223AF6  0000     DW      $0000
02223AF8  4000     SHLL    R0
02223AFA  0000     DW      $0000
02223AFC  0600     DW      $0600
02223AFE  48D0     DW      $48D0
02223B00  0000     DW      $0000
02223B02  8000     MOV.B   R0,@($0,R0)
02223B04  3BA7     CMP/GT  R10,R11
02223B06  890B     BT      $02223B20
02223B08  6063     MOV     R6,R0
02223B0A  6673     MOV     R7,R6
02223B0C  6703     MOV     R0,R7
02223B0E  6083     MOV     R8,R0
02223B10  6893     MOV     R9,R8
02223B12  6903     MOV     R0,R9
02223B14  60A3     MOV     R10,R0
02223B16  6AB3     MOV     R11,R10
02223B18  6B03     MOV     R0,R11
02223B1A  60C3     MOV     R12,R0
02223B1C  6CD3     MOV     R13,R12
02223B1E  6D03     MOV     R0,R13
02223B20  B042     BSR     $02223BA8
02223B22  51E9     MOV.L   @($24,R14),R1
02223B24  4E0B     JSR     @R14
02223B26  6153     MOV     R5,R1
02223B28  9005     MOV.W   @(${target:08X},PC),R0
02223B2A  350C     ADD     R0,R5
02223B2C  4610     DT      R6
02223B2E  8F1B     BF/S    $02223B68
02223B30  3CAC     ADD     R10,R12
02223B32  A005     BRA     $02223B40
02223B34  6185     MOV.W   @R8+,R1
02223B36  0200     DW      $0200
02223B38  4F26     LDS.L   @R15+,PR    ; Pop PR
02223B3A  000B     RTS

; === stream_decode_loop ===
02223B3C  0009     NOP
02223B3E  6185     MOV.W   @R8+,R1
02223B40  6285     MOV.W   @R8+,R2
02223B42  8581     MOV.B   R0,@($1,R5)
02223B44  4011     CMP/PZ  R0
02223B46  8B29     BF      $02223B9C
02223B48  3200     CMP/EQ  R0,R2
02223B4A  89F8     BT      $02223B3E
02223B4C  3208     SUB     R0,R2
02223B4E  4215     CMP/PL  R2
02223B50  89F2     BT      $02223B38
02223B52  D011     MOV.L   @($02223B98,PC),R0
02223B54  662B     NEG     R2,R6
02223B56  4200     SHLL    R2
02223B58  032D     DW      $032D
02223B5A  8580     MOV.B   R0,@($0,R5)
02223B5C  6C13     MOV     R1,R12
02223B5E  4C28     SHLL16  R12
02223B60  3108     SUB     R0,R1
02223B62  231F     MULS.W  R1,R3
02223B64  0A1A     STS     MACL,R10
02223B66  4A08     SHLL2   R10
02223B68  4710     DT      R7
02223B6A  8FDB     BF/S    $02223B24
02223B6C  3DBC     ADD     R11,R13
02223B6E  6195     MOV.W   @R9+,R1
02223B70  6295     MOV.W   @R9+,R2
02223B72  8591     MOV.B   R0,@($1,R5)
02223B74  3200     CMP/EQ  R0,R2
02223B76  89FA     BT      $02223B6E
02223B78  3208     SUB     R0,R2
02223B7A  4215     CMP/PL  R2
02223B7C  89DC     BT      $02223B38
02223B7E  D006     MOV.L   @($02223B98,PC),R0
02223B80  672B     NEG     R2,R7
02223B82  4200     SHLL    R2
02223B84  032D     DW      $032D
02223B86  8590     MOV.B   R0,@($0,R5)
02223B88  6D13     MOV     R1,R13
02223B8A  4D28     SHLL16  R13
02223B8C  3108     SUB     R0,R1
02223B8E  231F     MULS.W  R1,R3
02223B90  0B1A     STS     MACL,R11
02223B92  AFC7     BRA     $02223B24
02223B94  4B08     SHLL2   R11
02223B96  0000     DW      $0000
02223B98  0600     DW      $0600
02223B9A  48D0     DW      $48D0
02223B9C  3DBC     ADD     R11,R13
02223B9E  6153     MOV     R5,R1
02223BA0  4E2B     JMP     @R14
02223BA2  4F26     LDS.L   @R15+,PR    ; Pop PR
02223BA4  AFFE     BRA     $02223BA4
02223BA6  0009     NOP
02223BA8  851F     MOV.B   R0,@($F,R5)
02223BAA  940B     MOV.W   @(${target:08X},PC),R4
02223BAC  C802     DW      $C802
02223BAE  8B0F     BF      $02223BD0
02223BB0  2049     AND     R4,R0
02223BB2  6408     SWAP.B  R0,R4
02223BB4  240B     OR      R0,R4
02223BB6  D004     MOV.L   @($02223BC8,PC),R0
02223BB8  4518     SHLL8   R5
02223BBA  4500     SHLL    R5
02223BBC  350C     ADD     R0,R5
02223BBE  DE03     MOV.L   @($02223BCC,PC),R14
02223BC0  000B     RTS

; === command_process ===
02223BC2  0009     NOP
02223BC4  FF00     DW      $FF00
02223BC6  0000     DW      $0000
02223BC8  2400     MOV.B   R0,@R4
02223BCA  4000     SHLL    R0
02223BCC  C000     DW      $C000
02223BCE  0188     DW      $0188
02223BD0  2409     AND     R0,R4
02223BD2  6053     MOV     R5,R0
02223BD4  C801     DW      $C801
02223BD6  8B00     BF      $02223BDA
02223BD8  6448     SWAP.B  R4,R4
02223BDA  D005     MOV.L   @($02223BF0,PC),R0
02223BDC  4518     SHLL8   R5
02223BDE  4500     SHLL    R5
02223BE0  350C     ADD     R0,R5
02223BE2  DE04     MOV.L   @($02223BF4,PC),R14
02223BE4  C505     DW      $C505
02223BE6  C802     DW      $C802
02223BE8  8BFC     BF      $02223BE4
02223BEA  000B     RTS

; === param_extract ===
02223BEC  0009     NOP
02223BEE  0000     DW      $0000
02223BF0  2402     MOV.L   R0,@R4
02223BF2  4000     SHLL    R0
02223BF4  C000     DW      $C000
02223BF6  01F4     DW      $01F4
02223BF8  62C9     SWAP.W  R12,R2
02223BFA  622F     EXTS.W  R2,R2
02223BFC  63D9     SWAP.W  R13,R3
02223BFE  633F     EXTS.W  R3,R3
02223C00  312C     ADD     R2,R1
02223C02  3320     CMP/EQ  R2,R3
02223C04  891E     BT      $02223C44
02223C06  C505     DW      $C505
02223C08  C802     DW      $C802
02223C0A  8FFC     BF/S    $02223C06
02223C0C  E001     MOV     #$01,R0
02223C0E  2208     TST     R0,R2
02223C10  8902     BT      $02223C18
02223C12  2140     MOV.B   R4,@R1
02223C14  7101     ADD     #$01,R1
02223C16  7201     ADD     #$01,R2
02223C18  2308     TST     R0,R3
02223C1A  8F03     BF/S    $02223C24
02223C1C  6033     MOV     R3,R0
02223C1E  305C     ADD     R5,R0
02223C20  2040     MOV.B   R4,@R0
02223C22  6033     MOV     R3,R0
02223C24  3028     SUB     R2,R0
02223C26  7001     ADD     #$01,R0
02223C28  E202     MOV     #$02,R2
02223C2A  3023     CMP/GE  R2,R0
02223C2C  8F08     BF/S    $02223C40
02223C2E  4001     SHLR    R0
02223C30  70FF     ADD     #$FF,R0
02223C32  C102     DW      $C102
02223C34  6013     MOV     R1,R0
02223C36  4001     SHLR    R0
02223C38  C103     DW      $C103
02223C3A  6043     MOV     R4,R0
02223C3C  000B     RTS
02223C3E  C104     DW      $C104
02223C40  000B     RTS

; === utility_049 ===
02223C42  0009     NOP
02223C44  C505     DW      $C505
02223C46  C802     DW      $C802
02223C48  8BFC     BF      $02223C44
02223C4A  000B     RTS

; === data_fetch_loop ===
02223C4C  2140     MOV.B   R4,@R1
02223C4E  E202     MOV     #$02,R2
02223C50  3023     CMP/GE  R2,R0
02223C52  8BF5     BF      $02223C40
02223C54  4001     SHLR    R0
02223C56  2141     MOV.W   R4,@R1
02223C58  4010     DT      R0
02223C5A  8FFC     BF/S    $02223C56
02223C5C  7102     ADD     #$02,R1
02223C5E  000B     RTS

; === index_lookup ===
02223C60  0009     NOP
02223C62  0009     NOP
02223C64  62C9     SWAP.W  R12,R2
02223C66  622F     EXTS.W  R2,R2
02223C68  63D9     SWAP.W  R13,R3
02223C6A  633F     EXTS.W  R3,R3
02223C6C  6448     SWAP.B  R4,R4
02223C6E  313C     ADD     R3,R1
02223C70  3320     CMP/EQ  R2,R3
02223C72  8917     BT      $02223CA4
02223C74  6033     MOV     R3,R0
02223C76  C801     DW      $C801
02223C78  8F03     BF/S    $02223C82
02223C7A  6048     SWAP.B  R4,R0
02223C7C  2100     MOV.B   R0,@R1
02223C7E  71FF     ADD     #$FF,R1
02223C80  73FF     ADD     #$FF,R3
02223C82  7101     ADD     #$01,R1
02223C84  6033     MOV     R3,R0
02223C86  3028     SUB     R2,R0
02223C88  7001     ADD     #$01,R0
02223C8A  E302     MOV     #$02,R3
02223C8C  3033     CMP/GE  R3,R0
02223C8E  8F03     BF/S    $02223C98
02223C90  4001     SHLR    R0
02223C92  4010     DT      R0
02223C94  8FFD     BF/S    $02223C92
02223C96  2145     MOV.W   R4,@-R1
02223C98  6023     MOV     R2,R0
02223C9A  C801     DW      $C801
02223C9C  8900     BT      $02223CA0
02223C9E  2144     MOV.B   R4,@-R1
02223CA0  000B     RTS

; === utility_052 ===
02223CA2  0009     NOP
02223CA4  6023     MOV     R2,R0
02223CA6  C801     DW      $C801
02223CA8  8B02     BF      $02223CB0
02223CAA  6048     SWAP.B  R4,R0
02223CAC  000B     RTS

; === byte_store_op ===
02223CAE  2100     MOV.B   R0,@R1
02223CB0  000B     RTS

; === word_store_op ===
02223CB2  2140     MOV.B   R4,@R1
02223CB4  4F22     STS.L   PR,@-R15    ; Push PR
02223CB6  84E0     MOV.B   R0,@($0,R4)
02223CB8  8800     CMP/EQ  #$00,R0
02223CBA  8909     BT      $02223CD0
02223CBC  2FE6     MOV.L   R14,@-R15
02223CBE  2F76     MOV.L   R7,@-R15
02223CC0  9D2C     MOV.W   @(${target:08X},PC),R13
02223CC2  D117     MOV.L   @($02223D20,PC),R1
02223CC4  4000     SHLL    R0
02223CC6  001D     DW      $001D
02223CC8  0003     DW      $0003
02223CCA  0009     NOP
02223CCC  67F6     MOV.L   @R15+,R7
02223CCE  6EF6     MOV.L   @R15+,R14
02223CD0  4710     DT      R7
02223CD2  8FF0     BF/S    $02223CB6
02223CD4  7E10     ADD     #$10,R14
02223CD6  4F26     LDS.L   @R15+,PR    ; Pop PR
02223CD8  000B     RTS

; === long_store_op ===
02223CDA  0009     NOP
02223CDC  002C     DW      $002C
02223CDE  002C     DW      $002C
02223CE0  00A2     DW      $00A2
02223CE2  010C     DW      $010C
02223CE4  0198     DW      $0198
02223CE6  0198     DW      $0198
02223CE8  01C4     DW      $01C4
02223CEA  0072     DW      $0072
02223CEC  0088     DW      $0088
02223CEE  02FA     DW      $02FA
02223CF0  0058     DW      $0058
02223CF2  0328     DW      $0328
02223CF4  0336     DW      $0336
02223CF6  0342     DW      $0342
02223CF8  58E2     MOV.L   @($8,R14),R8
02223CFA  59E1     MOV.L   @($4,R14),R9
02223CFC  6685     MOV.W   @R8+,R6
02223CFE  6785     MOV.W   @R8+,R7
02223D00  6193     MOV     R9,R1
02223D02  6263     MOV     R6,R2
02223D04  6086     MOV.L   @R8+,R0
02223D06  1100     MOV.L   R0,@($0,R1)
02223D08  6086     MOV.L   @R8+,R0
02223D0A  1101     MOV.L   R0,@($4,R1)
02223D0C  4210     DT      R2
02223D0E  8FF9     BF/S    $02223D04
02223D10  7108     ADD     #$08,R1
02223D12  4710     DT      R7
02223D14  8FF4     BF/S    $02223D00
02223D16  39DC     ADD     R13,R9
02223D18  000B     RTS

; === ptr_advance ===
02223D1A  0009     NOP
02223D1C  0200     DW      $0200
02223D1E  0000     DW      $0000
02223D20  0600     DW      $0600
02223D22  3CDC     ADD     R13,R12
02223D24  85E1     MOV.B   R0,@($1,R5)
02223D26  9107     MOV.W   @(${target:08X},PC),R1
02223D28  3013     CMP/GE  R1,R0
02223D2A  8906     BT      $02223D3A
02223D2C  58E2     MOV.L   @($8,R14),R8
02223D2E  59E1     MOV.L   @($4,R14),R9
02223D30  E1FC     MOV     #$FC,R1
02223D32  2019     AND     R1,R0
02223D34  AFE2     BRA     $02223CFC
02223D36  390C     ADD     R0,R9
02223D38  0140     DW      $0140
02223D3A  000B     RTS

; === size_calc ===
02223D3C  0009     NOP
02223D3E  85E1     MOV.B   R0,@($1,R5)
02223D40  9105     MOV.W   @(${target:08X},PC),R1
02223D42  3013     CMP/GE  R1,R0
02223D44  8904     BT      $02223D50
02223D46  58E2     MOV.L   @($8,R14),R8
02223D48  59E1     MOV.L   @($4,R14),R9
02223D4A  A13E     BRA     $02223FCA
02223D4C  390C     ADD     R0,R9
02223D4E  0200     DW      $0200
02223D50  000B     RTS

; === offset_calc ===
02223D52  0009     NOP
02223D54  85E1     MOV.B   R0,@($1,R5)
02223D56  9107     MOV.W   @(${target:08X},PC),R1
02223D58  3013     CMP/GE  R1,R0
02223D5A  8906     BT      $02223D6A
02223D5C  59E1     MOV.L   @($4,R14),R9
02223D5E  E1FC     MOV     #$FC,R1
02223D60  2019     AND     R1,R0
02223D62  390C     ADD     R0,R9
02223D64  A005     BRA     $02223D72
02223D66  4F22     STS.L   PR,@-R15    ; Push PR
02223D68  0140     DW      $0140
02223D6A  000B     RTS
02223D6C  0009     NOP
02223D6E  4F22     STS.L   PR,@-R15    ; Push PR
02223D70  59E1     MOV.L   @($4,R14),R9
02223D72  DA15     MOV.L   @($02223DC8,PC),R10
02223D74  84E1     MOV.B   R0,@($1,R4)
02223D76  4008     SHLL2   R0
02223D78  0AAE     DW      $0AAE
02223D7A  84E8     MOV.B   R0,@($8,R4)
02223D7C  8800     CMP/EQ  #$00,R0
02223D7E  8901     BT      $02223D84
02223D80  B0A6     BSR     $02223ED0
02223D82  0009     NOP
02223D84  7908     ADD     #$08,R9
02223D86  84E9     MOV.B   R0,@($9,R4)
02223D88  8800     CMP/EQ  #$00,R0
02223D8A  8901     BT      $02223D90
02223D8C  B0A0     BSR     $02223ED0
02223D8E  0009     NOP
02223D90  7908     ADD     #$08,R9
02223D92  B09D     BSR     $02223ED0
02223D94  84EA     MOV.B   R0,@($A,R4)
02223D96  7908     ADD     #$08,R9
02223D98  B09A     BSR     $02223ED0
02223D9A  E00A     MOV     #$0A,R0
02223D9C  7908     ADD     #$08,R9
02223D9E  B097     BSR     $02223ED0
02223DA0  84EB     MOV.B   R0,@($B,R4)
02223DA2  7908     ADD     #$08,R9
02223DA4  B094     BSR     $02223ED0
02223DA6  84EC     MOV.B   R0,@($C,R4)
02223DA8  7908     ADD     #$08,R9
02223DAA  B091     BSR     $02223ED0
02223DAC  E00B     MOV     #$0B,R0
02223DAE  7908     ADD     #$08,R9
02223DB0  B08E     BSR     $02223ED0
02223DB2  84ED     MOV.B   R0,@($D,R4)
02223DB4  7908     ADD     #$08,R9
02223DB6  B08B     BSR     $02223ED0
02223DB8  84EE     MOV.B   R0,@($E,R4)
02223DBA  7908     ADD     #$08,R9
02223DBC  B088     BSR     $02223ED0
02223DBE  84EF     MOV.B   R0,@($F,R4)
02223DC0  4F26     LDS.L   @R15+,PR    ; Pop PR
02223DC2  000B     RTS

; === multi_block_copy_orch ===
02223DC4  0009     NOP
02223DC6  0000     DW      $0000
02223DC8  0600     DW      $0600
02223DCA  3DCC     ADD     R12,R13
02223DCC  0600     DW      $0600
02223DCE  7B88     ADD     #$88,R11
02223DD0  0600     DW      $0600
02223DD2  7F4C     ADD     #$4C,R15
02223DD4  0600     DW      $0600
02223DD6  8310     MOV.B   R0,@($0,R3)
02223DD8  4F22     STS.L   PR,@-R15    ; Push PR
02223DDA  59E1     MOV.L   @($4,R14),R9
02223DDC  902A     MOV.W   @(${target:08X},PC),R0
02223DDE  390C     ADD     R0,R9
02223DE0  DA15     MOV.L   @($02223E38,PC),R10
02223DE2  84E1     MOV.B   R0,@($1,R4)
02223DE4  4008     SHLL2   R0
02223DE6  0AAE     DW      $0AAE
02223DE8  84E8     MOV.B   R0,@($8,R4)
02223DEA  8800     CMP/EQ  #$00,R0
02223DEC  8901     BT      $02223DF2
02223DEE  B09E     BSR     $02223F2E
02223DF0  0009     NOP
02223DF2  7908     ADD     #$08,R9
02223DF4  84E9     MOV.B   R0,@($9,R4)
02223DF6  8800     CMP/EQ  #$00,R0
02223DF8  8901     BT      $02223DFE
02223DFA  B098     BSR     $02223F2E
02223DFC  0009     NOP
02223DFE  7908     ADD     #$08,R9
02223E00  B095     BSR     $02223F2E
02223E02  84EA     MOV.B   R0,@($A,R4)
02223E04  7908     ADD     #$08,R9
02223E06  B092     BSR     $02223F2E
02223E08  E00A     MOV     #$0A,R0
02223E0A  7908     ADD     #$08,R9
02223E0C  B08F     BSR     $02223F2E
02223E0E  84EB     MOV.B   R0,@($B,R4)
02223E10  7908     ADD     #$08,R9
02223E12  B08C     BSR     $02223F2E
02223E14  84EC     MOV.B   R0,@($C,R4)
02223E16  7908     ADD     #$08,R9
02223E18  B089     BSR     $02223F2E
02223E1A  E00B     MOV     #$0B,R0

; === polygon_type_select ===
02223E1C  7908     ADD     #$08,R9
02223E1E  B086     BSR     $02223F2E
02223E20  84ED     MOV.B   R0,@($D,R4)
02223E22  7908     ADD     #$08,R9
02223E24  B083     BSR     $02223F2E
02223E26  84EE     MOV.B   R0,@($E,R4)
02223E28  7908     ADD     #$08,R9
02223E2A  B080     BSR     $02223F2E
02223E2C  84EF     MOV.B   R0,@($F,R4)
02223E2E  4F26     LDS.L   @R15+,PR    ; Pop PR
02223E30  000B     RTS

; === dual_block_copy ===
02223E32  0009     NOP
02223E34  0400     DW      $0400
02223E36  0000     DW      $0000
02223E38  0600     DW      $0600
02223E3A  3E3C     ADD     R3,R14
02223E3C  0600     DW      $0600
02223E3E  86E4     MOV.B   R0,@($4,R6)
02223E40  0600     DW      $0600
02223E42  8E68     DW      $8E68
02223E44  0600     DW      $0600
02223E46  95EC     MOV.W   @(${target:08X},PC),R5
02223E48  4F22     STS.L   PR,@-R15    ; Push PR
02223E4A  59E1     MOV.L   @($4,R14),R9
02223E4C  DA04     MOV.L   @($02223E60,PC),R10
02223E4E  B06E     BSR     $02223F2E
02223E50  84EA     MOV.B   R0,@($A,R4)
02223E52  7908     ADD     #$08,R9
02223E54  B06B     BSR     $02223F2E
02223E56  84EB     MOV.B   R0,@($B,R4)
02223E58  4F26     LDS.L   @R15+,PR    ; Pop PR
02223E5A  000B     RTS

; === conditional_dual_copy ===
02223E5C  0009     NOP

; === tri_render_flat ===
02223E5E  0000     DW      $0000
02223E60  0600     DW      $0600
02223E62  86D4     MOV.B   R0,@($4,R6)
02223E64  4F22     STS.L   PR,@-R15    ; Push PR
02223E66  59E1     MOV.L   @($4,R14),R9
02223E68  900F     MOV.W   @(${target:08X},PC),R0
02223E6A  390C     ADD     R0,R9
02223E6C  DA07     MOV.L   @($02223E8C,PC),R10
02223E6E  84E1     MOV.B   R0,@($1,R4)
02223E70  4008     SHLL2   R0
02223E72  0AAE     DW      $0AAE
02223E74  84EA     MOV.B   R0,@($A,R4)
02223E76  8800     CMP/EQ  #$00,R0
02223E78  8901     BT      $02223E7E
02223E7A  B058     BSR     $02223F2E
02223E7C  0009     NOP
02223E7E  7908     ADD     #$08,R9
02223E80  B055     BSR     $02223F2E
02223E82  84EB     MOV.B   R0,@($B,R4)
02223E84  4F26     LDS.L   @R15+,PR    ; Pop PR
02223E86  000B     RTS

; === triple_block_copy ===
02223E88  0009     NOP
02223E8A  0400     DW      $0400
02223E8C  0600     DW      $0600
02223E8E  3E3C     ADD     R3,R14
02223E90  4F22     STS.L   PR,@-R15    ; Push PR
02223E92  59E1     MOV.L   @($4,R14),R9
02223E94  9018     MOV.W   @(${target:08X},PC),R0
02223E96  390C     ADD     R0,R9
02223E98  DA0C     MOV.L   @($02223ECC,PC),R10
02223E9A  84E1     MOV.B   R0,@($1,R4)
02223E9C  4008     SHLL2   R0
02223E9E  0AAE     DW      $0AAE

; === tri_render_gouraud ===
02223EA0  EC00     MOV     #$00,R12
02223EA2  84E9     MOV.B   R0,@($9,R4)
02223EA4  8800     CMP/EQ  #$00,R0
02223EA6  8901     BT      $02223EAC
02223EA8  B041     BSR     $02223F2E
02223EAA  EC01     MOV     #$01,R12
02223EAC  7908     ADD     #$08,R9
02223EAE  84EA     MOV.B   R0,@($A,R4)
02223EB0  4C15     CMP/PL  R12
02223EB2  8901     BT      $02223EB8
02223EB4  8800     CMP/EQ  #$00,R0
02223EB6  8901     BT      $02223EBC
02223EB8  B039     BSR     $02223F2E
02223EBA  EC01     MOV     #$01,R12
02223EBC  7908     ADD     #$08,R9
02223EBE  B036     BSR     $02223F2E
02223EC0  84EB     MOV.B   R0,@($B,R4)
02223EC2  4F26     LDS.L   @R15+,PR    ; Pop PR
02223EC4  000B     RTS

; === inline_unrolled_copy ===
02223EC6  0009     NOP
02223EC8  0400     DW      $0400
02223ECA  0000     DW      $0000
02223ECC  0600     DW      $0600
02223ECE  3E3C     ADD     R3,R14
02223ED0  4008     SHLL2   R0
02223ED2  4008     SHLL2   R0
02223ED4  4008     SHLL2   R0
02223ED6  30AC     ADD     R10,R0
02223ED8  6193     MOV     R9,R1
02223EDA  6206     MOV.L   @R0+,R2
02223EDC  1120     MOV.L   R2,@($0,R1)
02223EDE  6206     MOV.L   @R0+,R2
02223EE0  1121     MOV.L   R2,@($4,R1)
02223EE2  31DC     ADD     R13,R1
02223EE4  6206     MOV.L   @R0+,R2
02223EE6  1120     MOV.L   R2,@($0,R1)
02223EE8  6206     MOV.L   @R0+,R2
02223EEA  1121     MOV.L   R2,@($4,R1)
02223EEC  31DC     ADD     R13,R1
02223EEE  6206     MOV.L   @R0+,R2
02223EF0  1120     MOV.L   R2,@($0,R1)
02223EF2  6206     MOV.L   @R0+,R2
02223EF4  1121     MOV.L   R2,@($4,R1)
02223EF6  31DC     ADD     R13,R1
02223EF8  6206     MOV.L   @R0+,R2
02223EFA  1120     MOV.L   R2,@($0,R1)
02223EFC  6206     MOV.L   @R0+,R2
02223EFE  1121     MOV.L   R2,@($4,R1)

; === quad_render_flat ===
02223F00  31DC     ADD     R13,R1
02223F02  6206     MOV.L   @R0+,R2
02223F04  1120     MOV.L   R2,@($0,R1)
02223F06  6206     MOV.L   @R0+,R2
02223F08  1121     MOV.L   R2,@($4,R1)
02223F0A  31DC     ADD     R13,R1
02223F0C  6206     MOV.L   @R0+,R2
02223F0E  1120     MOV.L   R2,@($0,R1)
02223F10  6206     MOV.L   @R0+,R2
02223F12  1121     MOV.L   R2,@($4,R1)
02223F14  31DC     ADD     R13,R1
02223F16  6206     MOV.L   @R0+,R2
02223F18  1120     MOV.L   R2,@($0,R1)
02223F1A  6206     MOV.L   @R0+,R2
02223F1C  1121     MOV.L   R2,@($4,R1)
02223F1E  31DC     ADD     R13,R1
02223F20  6206     MOV.L   @R0+,R2
02223F22  1120     MOV.L   R2,@($0,R1)
02223F24  6206     MOV.L   @R0+,R2
02223F26  1121     MOV.L   R2,@($4,R1)
02223F28  31DC     ADD     R13,R1
02223F2A  000B     RTS

; === unrolled_data_copy ===
02223F2C  0009     NOP
02223F2E  4018     SHLL8   R0
02223F30  4001     SHLR    R0
02223F32  30AC     ADD     R10,R0
02223F34  6193     MOV     R9,R1
02223F36  6206     MOV.L   @R0+,R2
02223F38  1120     MOV.L   R2,@($0,R1)
02223F3A  6206     MOV.L   @R0+,R2
02223F3C  1121     MOV.L   R2,@($4,R1)
02223F3E  31DC     ADD     R13,R1
02223F40  6206     MOV.L   @R0+,R2
02223F42  1120     MOV.L   R2,@($0,R1)
02223F44  6206     MOV.L   @R0+,R2
02223F46  1121     MOV.L   R2,@($4,R1)
02223F48  31DC     ADD     R13,R1
02223F4A  6206     MOV.L   @R0+,R2
02223F4C  1120     MOV.L   R2,@($0,R1)
02223F4E  6206     MOV.L   @R0+,R2
02223F50  1121     MOV.L   R2,@($4,R1)
02223F52  31DC     ADD     R13,R1
02223F54  6206     MOV.L   @R0+,R2
02223F56  1120     MOV.L   R2,@($0,R1)
02223F58  6206     MOV.L   @R0+,R2
02223F5A  1121     MOV.L   R2,@($4,R1)
02223F5C  31DC     ADD     R13,R1
02223F5E  6206     MOV.L   @R0+,R2
02223F60  1120     MOV.L   R2,@($0,R1)
02223F62  6206     MOV.L   @R0+,R2
02223F64  1121     MOV.L   R2,@($4,R1)
02223F66  31DC     ADD     R13,R1
02223F68  6206     MOV.L   @R0+,R2
02223F6A  1120     MOV.L   R2,@($0,R1)
02223F6C  6206     MOV.L   @R0+,R2
02223F6E  1121     MOV.L   R2,@($4,R1)
02223F70  31DC     ADD     R13,R1
02223F72  6206     MOV.L   @R0+,R2
02223F74  1120     MOV.L   R2,@($0,R1)
02223F76  6206     MOV.L   @R0+,R2
02223F78  1121     MOV.L   R2,@($4,R1)
02223F7A  31DC     ADD     R13,R1
02223F7C  6206     MOV.L   @R0+,R2
02223F7E  1120     MOV.L   R2,@($0,R1)
02223F80  6206     MOV.L   @R0+,R2
02223F82  1121     MOV.L   R2,@($4,R1)
02223F84  31DC     ADD     R13,R1
02223F86  6206     MOV.L   @R0+,R2
02223F88  1120     MOV.L   R2,@($0,R1)
02223F8A  6206     MOV.L   @R0+,R2
02223F8C  1121     MOV.L   R2,@($4,R1)
02223F8E  31DC     ADD     R13,R1
02223F90  6206     MOV.L   @R0+,R2
02223F92  1120     MOV.L   R2,@($0,R1)
02223F94  6206     MOV.L   @R0+,R2
02223F96  1121     MOV.L   R2,@($4,R1)
02223F98  31DC     ADD     R13,R1
02223F9A  6206     MOV.L   @R0+,R2
02223F9C  1120     MOV.L   R2,@($0,R1)
02223F9E  6206     MOV.L   @R0+,R2
02223FA0  1121     MOV.L   R2,@($4,R1)
02223FA2  31DC     ADD     R13,R1
02223FA4  6206     MOV.L   @R0+,R2
02223FA6  1120     MOV.L   R2,@($0,R1)
02223FA8  6206     MOV.L   @R0+,R2
02223FAA  1121     MOV.L   R2,@($4,R1)
02223FAC  31DC     ADD     R13,R1
02223FAE  6206     MOV.L   @R0+,R2
02223FB0  1120     MOV.L   R2,@($0,R1)
02223FB2  6206     MOV.L   @R0+,R2
02223FB4  1121     MOV.L   R2,@($4,R1)
02223FB6  31DC     ADD     R13,R1
02223FB8  6206     MOV.L   @R0+,R2
02223FBA  1120     MOV.L   R2,@($0,R1)
02223FBC  6206     MOV.L   @R0+,R2
02223FBE  1121     MOV.L   R2,@($4,R1)
02223FC0  31DC     ADD     R13,R1
02223FC2  000B     RTS

; === block_copy_32 ===
02223FC4  0009     NOP
02223FC6  58E2     MOV.L   @($8,R14),R8
02223FC8  59E1     MOV.L   @($4,R14),R9
02223FCA  6785     MOV.W   @R8+,R7
02223FCC  6193     MOV     R9,R1
02223FCE  6085     MOV.W   @R8+,R0
02223FD0  8800     CMP/EQ  #$00,R0
02223FD2  890A     BT      $02223FEA
02223FD4  660C     EXTU.B  R0,R6
02223FD6  4019     SHLR8   R0
02223FD8  C8FF     DW      $C8FF
02223FDA  8904     BT      $02223FE6
02223FDC  4610     DT      R6
02223FDE  8FFD     BF/S    $02223FDC
02223FE0  2104     MOV.B   R0,@-R1
02223FE2  AFF5     BRA     $02223FD0
02223FE4  6085     MOV.W   @R8+,R0
02223FE6  AFF2     BRA     $02223FCE
02223FE8  3168     SUB     R6,R1
02223FEA  4710     DT      R7
02223FEC  8FEE     BF/S    $02223FCC
02223FEE  39DC     ADD     R13,R9
02223FF0  000B     RTS

; === block_copy_48 ===
02223FF2  0009     NOP
02223FF4  58E2     MOV.L   @($8,R14),R8
02223FF6  59E1     MOV.L   @($4,R14),R9
02223FF8  7802     ADD     #$02,R8
02223FFA  85E1     MOV.B   R0,@($1,R5)
02223FFC  6703     MOV     R0,R7
02223FFE  AFE5     BRA     $02223FCC

; === block_copy_64 ===
02224000  6DDB     NEG     R13,R13
02224002  58E2     MOV.L   @($8,R14),R8
02224004  59E1     MOV.L   @($4,R14),R9
02224006  7802     ADD     #$02,R8
02224008  85E1     MOV.B   R0,@($1,R5)
0222400A  AFDF     BRA     $02223FCC
0222400C  6703     MOV     R0,R7
0222400E  58E2     MOV.L   @($8,R14),R8
02224010  59E1     MOV.L   @($4,R14),R9
02224012  E0FC     MOV     #$FC,R0
02224014  2909     AND     R0,R9
02224016  6093     MOV     R9,R0
02224018  911F     MOV.W   @(${target:08X},PC),R1
0222401A  2019     AND     R1,R0
0222401C  911E     MOV.W   @(${target:08X},PC),R1
0222401E  3013     CMP/GE  R1,R0
02224020  8919     BT      $02224056
02224022  4009     SHLR2   R0
02224024  4001     SHLR    R0
02224026  6685     MOV.W   @R8+,R6
02224028  E500     MOV     #$00,R5
0222402A  306C     ADD     R6,R0
0222402C  70D8     ADD     #$D8,R0
0222402E  4015     CMP/PL  R0
02224030  8B03     BF      $0222403A
02224032  3608     SUB     R0,R6
02224034  6503     MOV     R0,R5
02224036  4508     SHLL2   R5
02224038  4500     SHLL    R5
0222403A  6785     MOV.W   @R8+,R7
0222403C  6193     MOV     R9,R1
0222403E  6263     MOV     R6,R2
02224040  6086     MOV.L   @R8+,R0
02224042  1100     MOV.L   R0,@($0,R1)
02224044  6086     MOV.L   @R8+,R0
02224046  1101     MOV.L   R0,@($4,R1)
02224048  4210     DT      R2
0222404A  8FF9     BF/S    $02224040
0222404C  7108     ADD     #$08,R1
0222404E  385C     ADD     R5,R8
02224050  4710     DT      R7
02224052  8FF3     BF/S    $0222403C
02224054  39DC     ADD     R13,R9
02224056  000B     RTS
02224058  0009     NOP
0222405A  01FF     MAC.L   @R15+,@R1+
0222405C  0140     DW      $0140
0222405E  FFFF     DW      $FFFF
02224060  4F22     STS.L   PR,@-R15    ; Push PR
02224062  85E0     MOV.B   R0,@($0,R5)
02224064  8800     CMP/EQ  #$00,R0
02224066  8907     BT      $02224078
02224068  2FE6     MOV.L   R14,@-R15
0222406A  2F76     MOV.L   R7,@-R15
0222406C  B00A     BSR     $02224084
0222406E  0009     NOP
02224070  B098     BSR     $022241A4
02224072  0009     NOP
02224074  67F6     MOV.L   @R15+,R7
02224076  6EF6     MOV.L   @R15+,R14
02224078  4710     DT      R7
0222407A  8FF2     BF/S    $02224062
0222407C  7E14     ADD     #$14,R14
0222407E  4F26     LDS.L   @R15+,PR    ; Pop PR
02224080  000B     RTS
02224082  0009     NOP
02224084  DD1E     MOV.L   @($02224100,PC),R13
02224086  D11F     MOV.L   @($02224104,PC),R1
02224088  84E2     MOV.B   R0,@($2,R4)
0222408A  4008     SHLL2   R0
0222408C  001E     DW      $001E
0222408E  2D02     MOV.L   R0,@R13
02224090  E000     MOV     #$00,R0
02224092  81D2     MOV.B   R0,@($2,R1)
02224094  85E8     MOV.B   R0,@($8,R5)
02224096  81D3     MOV.B   R0,@($3,R1)
02224098  85E9     MOV.B   R0,@($9,R5)
0222409A  81D4     MOV.B   R0,@($4,R1)
0222409C  E000     MOV     #$00,R0
0222409E  80DA     MOV.B   R0,@($A,R0)
022240A0  84EA     MOV.B   R0,@($A,R4)
022240A2  7030     ADD     #$30,R0
022240A4  80DB     MOV.B   R0,@($B,R0)
022240A6  E027     MOV     #$27,R0
022240A8  80DC     MOV.B   R0,@($C,R0)
022240AA  84EB     MOV.B   R0,@($B,R4)
022240AC  7030     ADD     #$30,R0
022240AE  80DD     MOV.B   R0,@($D,R0)
022240B0  84EC     MOV.B   R0,@($C,R4)
022240B2  7030     ADD     #$30,R0
022240B4  80DE     MOV.B   R0,@($E,R0)
022240B6  E022     MOV     #$22,R0
022240B8  80DF     MOV.B   R0,@($F,R0)
022240BA  7D10     ADD     #$10,R13
022240BC  84ED     MOV.B   R0,@($D,R4)
022240BE  7030     ADD     #$30,R0
022240C0  80D0     MOV.B   R0,@($0,R0)
022240C2  84EE     MOV.B   R0,@($E,R4)
022240C4  7030     ADD     #$30,R0
022240C6  80D1     MOV.B   R0,@($1,R0)
022240C8  84EF     MOV.B   R0,@($F,R4)
022240CA  7030     ADD     #$30,R0
022240CC  80D2     MOV.B   R0,@($2,R0)
022240CE  E000     MOV     #$00,R0
022240D0  80D3     MOV.B   R0,@($3,R0)
022240D2  80D4     MOV.B   R0,@($4,R0)
022240D4  84E3     MOV.B   R0,@($3,R4)
022240D6  D10C     MOV.L   @($02224108,PC),R1
022240D8  4008     SHLL2   R0
022240DA  4000     SHLL    R0
022240DC  310C     ADD     R0,R1
022240DE  6014     MOV.B   @R1+,R0
022240E0  80D5     MOV.B   R0,@($5,R0)
022240E2  6014     MOV.B   @R1+,R0
022240E4  80D6     MOV.B   R0,@($6,R0)
022240E6  6014     MOV.B   @R1+,R0
022240E8  80D7     MOV.B   R0,@($7,R0)
022240EA  6014     MOV.B   @R1+,R0
022240EC  80D8     MOV.B   R0,@($8,R0)
022240EE  6014     MOV.B   @R1+,R0
022240F0  80D9     MOV.B   R0,@($9,R0)
022240F2  6014     MOV.B   @R1+,R0
022240F4  80DA     MOV.B   R0,@($A,R0)
022240F6  6014     MOV.B   @R1+,R0
022240F8  80DB     MOV.B   R0,@($B,R0)
022240FA  000B     RTS
022240FC  0009     NOP
022240FE  0000     DW      $0000

; === framebuffer_clear ===
02224100  C000     DW      $C000
02224102  0000     DW      $0000
02224104  0600     DW      $0600
02224106  410C     DW      $410C
02224108  0600     DW      $0600
0222410A  4184     DW      $4184
0222410C  2020     MOV.B   R2,@R0
0222410E  2020     MOV.B   R2,@R0
02224110  2031     MOV.W   R3,@R0
02224112  7374     ADD     #$74,R3
02224114  2032     MOV.L   R3,@R0
02224116  6E64     MOV.B   @R6+,R14
02224118  2033     DW      $2033
0222411A  7264     ADD     #$64,R2
0222411C  2034     MOV.B   R3,@-R0
0222411E  7468     ADD     #$68,R4
02224120  2035     MOV.W   R3,@-R0
02224122  7468     ADD     #$68,R4
02224124  2036     MOV.L   R3,@-R0
02224126  7468     ADD     #$68,R4
02224128  2037     DW      $2037
0222412A  7468     ADD     #$68,R4
0222412C  2038     TST     R3,R0
0222412E  7468     ADD     #$68,R4
02224130  2039     AND     R3,R0
02224132  7468     ADD     #$68,R4
02224134  3130     CMP/EQ  R3,R1
02224136  7468     ADD     #$68,R4
02224138  3131     DW      $3131
0222413A  7468     ADD     #$68,R4
0222413C  3132     CMP/HS  R3,R1
0222413E  7468     ADD     #$68,R4
02224140  3133     CMP/GE  R3,R1
02224142  7468     ADD     #$68,R4
02224144  3134     DW      $3134
02224146  7468     ADD     #$68,R4
02224148  3135     DW      $3135
0222414A  7468     ADD     #$68,R4
0222414C  3136     CMP/HI  R3,R1
0222414E  7468     ADD     #$68,R4

; === framebuffer_flip ===
02224150  3137     CMP/GT  R3,R1
02224152  7468     ADD     #$68,R4
02224154  3138     SUB     R3,R1
02224156  7468     ADD     #$68,R4
02224158  3139     DW      $3139
0222415A  7468     ADD     #$68,R4
0222415C  3230     CMP/EQ  R3,R2
0222415E  7468     ADD     #$68,R4
02224160  3231     DW      $3231
02224162  7374     ADD     #$74,R3
02224164  3232     CMP/HS  R3,R2
02224166  6E64     MOV.B   @R6+,R14
02224168  3233     CMP/GE  R3,R2
0222416A  7264     ADD     #$64,R2
0222416C  3234     DW      $3234
0222416E  7468     ADD     #$68,R4
02224170  3235     DW      $3235
02224172  7468     ADD     #$68,R4
02224174  3236     CMP/HI  R3,R2
02224176  7468     ADD     #$68,R4
02224178  3237     CMP/GT  R3,R2
0222417A  7468     ADD     #$68,R4
0222417C  3238     SUB     R3,R2
0222417E  7468     ADD     #$68,R4
02224180  3239     DW      $3239
02224182  7468     ADD     #$68,R4
02224184  0102     DW      $0102
02224186  0304     DW      $0304
02224188  0506     DW      $0506
0222418A  0700     DW      $0700
0222418C  090A     STS     MACH,R9
0222418E  0B0C     DW      $0B0C
02224190  0D0E     DW      $0D0E
02224192  0F00     DW      $0F00
02224194  1112     MOV.L   R1,@($8,R1)
02224196  1314     MOV.L   R1,@($10,R3)
02224198  1516     MOV.L   R1,@($18,R5)
0222419A  1700     MOV.L   R0,@($0,R7)
0222419C  191A     MOV.L   R1,@($28,R9)
0222419E  1B1C     MOV.L   R1,@($30,R11)

; === palette_transfer ===
022241A0  1D1E     MOV.L   R1,@($38,R13)
022241A2  1F00     MOV.L   R0,@($0,R15)
022241A4  4F22     STS.L   PR,@-R15    ; Push PR
022241A6  DC0B     MOV.L   @($022241D4,PC),R12
022241A8  9D11     MOV.W   @(${target:08X},PC),R13
022241AA  59E1     MOV.L   @($4,R14),R9
022241AC  9010     MOV.W   @(${target:08X},PC),R0
022241AE  390C     ADD     R0,R9
022241B0  85E0     MOV.B   R0,@($0,R5)
022241B2  4011     CMP/PZ  R0
022241B4  8B10     BF      $022241D8
022241B6  6B03     MOV     R0,R11
022241B8  60C4     MOV.B   @R12+,R0
022241BA  8800     CMP/EQ  #$00,R0
022241BC  8901     BT      $022241C2
022241BE  B013     BSR     $022241E8
022241C0  0009     NOP
022241C2  4B10     DT      R11
022241C4  8FF8     BF/S    $022241B8
022241C6  7908     ADD     #$08,R9
022241C8  4F26     LDS.L   @R15+,PR    ; Pop PR
022241CA  000B     RTS
022241CC  0009     NOP
022241CE  0200     DW      $0200
022241D0  0400     DW      $0400
022241D2  0000     DW      $0000
022241D4  C000     DW      $C000
022241D6  0000     DW      $0000
022241D8  600B     NEG     R0,R0
022241DA  EB1C     MOV     #$1C,R11
022241DC  3B08     SUB     R0,R11
022241DE  3C0C     ADD     R0,R12
022241E0  4008     SHLL2   R0
022241E2  4000     SHLL    R0
022241E4  AFE8     BRA     $022241B8
022241E6  390C     ADD     R0,R9
022241E8  DA07     MOV.L   @($02224208,PC),R10
022241EA  4018     SHLL8   R0
022241EC  4001     SHLR    R0
022241EE  3A0C     ADD     R0,R10
022241F0  6193     MOV     R9,R1
022241F2  E70E     MOV     #$0E,R7
022241F4  62A6     MOV.L   @R10+,R2
022241F6  1120     MOV.L   R2,@($0,R1)
022241F8  62A6     MOV.L   @R10+,R2
022241FA  1121     MOV.L   R2,@($4,R1)
022241FC  4710     DT      R7
022241FE  8FF9     BF/S    $022241F4
02224200  31DC     ADD     R13,R1
02224202  000B     RTS
02224204  0009     NOP
02224206  0000     DW      $0000
02224208  2202     MOV.L   R0,@R2
0222420A  9D6C     MOV.W   @(${target:08X},PC),R13
0222420C  4F22     STS.L   PR,@-R15    ; Push PR
0222420E  9D06     MOV.W   @(${target:08X},PC),R13
02224210  6084     MOV.B   @R8+,R0
02224212  8800     CMP/EQ  #$00,R0
02224214  8904     BT      $02224220
02224216  BFE7     BSR     $022241E8
02224218  0009     NOP
0222421A  AFF9     BRA     $02224210
0222421C  7908     ADD     #$08,R9
0222421E  0200     DW      $0200
02224220  4F26     LDS.L   @R15+,PR    ; Pop PR
02224222  000B     RTS
02224224  0009     NOP
02224226  FFFF     DW      $FFFF
02224228  DE0E     MOV.L   @($02224264,PC),R14
0222422A  9019     MOV.W   @(${target:08X},PC),R0
0222422C  81E0     MOV.B   R0,@($0,R1)
0222422E  9018     MOV.W   @(${target:08X},PC),R0
02224230  81E1     MOV.B   R0,@($1,R1)
02224232  D00D     MOV.L   @($02224268,PC),R0
02224234  401E     DW      $401E
02224236  E000     MOV     #$00,R0
02224238  C105     DW      $C105
0222423A  4410     DT      R4
0222423C  8918     BT      $02224270
0222423E  6035     MOV.W   @R3+,R0
02224240  6108     SWAP.B  R0,R1
02224242  611C     EXTU.B  R1,R1
02224244  4108     SHLL2   R1
02224246  6613     MOV     R1,R6
02224248  600C     EXTU.B  R0,R0
0222424A  4008     SHLL2   R0
0222424C  6703     MOV     R0,R7
0222424E  D107     MOV.L   @($0222426C,PC),R1
02224250  85E2     MOV.B   R0,@($2,R5)
02224252  2018     TST     R1,R0
02224254  8BFB     BF      $0222424E
02224256  6063     MOV     R6,R0
02224258  81E2     MOV.B   R0,@($2,R1)
0222425A  6073     MOV     R7,R0
0222425C  AFED     BRA     $0222423A
0222425E  81E3     MOV.B   R0,@($3,R1)
02224260  0105     DW      $0105
02224262  0417     DW      $0417
02224264  2000     MOV.B   R0,@R0
02224266  4030     DW      $4030
02224268  0600     DW      $0600
0222426A  F800     DW      $F800
0222426C  0000     DW      $0000
0222426E  8000     MOV.B   R0,@($0,R0)
02224270  000B     RTS
02224272  0009     NOP
02224274  D00B     MOV.L   @($022242A4,PC),R0
02224276  6000     MOV.B   @R0,R0
02224278  8800     CMP/EQ  #$00,R0
0222427A  8910     BT      $0222429E
0222427C  8880     CMP/EQ  #$80,R0
0222427E  892F     BT      $022242E0
02224280  4015     CMP/PL  R0
02224282  8B13     BF      $022242AC
02224284  6603     MOV     R0,R6
02224286  940C     MOV.W   @(${target:08X},PC),R4
02224288  D507     MOV.L   @($022242A8,PC),R5
0222428A  E71C     MOV     #$1C,R7
0222428C  6063     MOV     R6,R0
0222428E  6153     MOV     R5,R1
02224290  2141     MOV.W   R4,@R1
02224292  4010     DT      R0
02224294  8FFC     BF/S    $02224290
02224296  7102     ADD     #$02,R1
02224298  4710     DT      R7
0222429A  8FF7     BF/S    $0222428C
0222429C  7510     ADD     #$10,R5
0222429E  000B     RTS
022242A0  0009     NOP
022242A2  1F00     MOV.L   R0,@($0,R15)
022242A4  0600     DW      $0600
022242A6  C0D5     DW      $C0D5
022242A8  2400     MOV.B   R0,@R4
022242AA  0000     DW      $0000
022242AC  660B     NEG     R0,R6
022242AE  D50B     MOV.L   @($022242DC,PC),R5
022242B0  9410     MOV.W   @(${target:08X},PC),R4
022242B2  9210     MOV.W   @(${target:08X},PC),R2
022242B4  9310     MOV.W   @(${target:08X},PC),R3
022242B6  E71C     MOV     #$1C,R7
022242B8  6153     MOV     R5,R1
022242BA  6843     MOV     R4,R8
022242BC  6063     MOV     R6,R0
022242BE  2181     MOV.W   R8,@R1
022242C0  382C     ADD     R2,R8
022242C2  4010     DT      R0
022242C4  8FFB     BF/S    $022242BE
022242C6  7102     ADD     #$02,R1
022242C8  343C     ADD     R3,R4
022242CA  4710     DT      R7
022242CC  8FF4     BF/S    $022242B8
022242CE  7510     ADD     #$10,R5
022242D0  000B     RTS
022242D2  0009     NOP
022242D4  2000     MOV.B   R0,@R0
022242D6  0100     DW      $0100
022242D8  0800     DW      $0800
022242DA  0000     DW      $0000
022242DC  2400     MOV.B   R0,@R4
022242DE  0000     DW      $0000
022242E0  D806     MOV.L   @($022242FC,PC),R8
022242E2  9007     MOV.W   @(${target:08X},PC),R0
022242E4  9107     MOV.W   @(${target:08X},PC),R1
022242E6  9707     MOV.W   @(${target:08X},PC),R7
022242E8  2805     MOV.W   R0,@-R8
022242EA  4710     DT      R7
022242EC  8FFC     BF/S    $022242E8
022242EE  3018     SUB     R1,R0
022242F0  000B     RTS
022242F2  0009     NOP
022242F4  FF00     DW      $FF00
022242F6  0100     DW      $0100
022242F8  00E0     DW      $00E0
022242FA  0000     DW      $0000
022242FC  2400     MOV.B   R0,@R4
022242FE  01C0     DW      $01C0
02224300  D108     MOV.L   @($02224324,PC),R1
02224302  D709     MOV.L   @($02224328,PC),R7
02224304  E000     MOV     #$00,R0
02224306  2106     MOV.L   R0,@-R1
02224308  2106     MOV.L   R0,@-R1
0222430A  2106     MOV.L   R0,@-R1
0222430C  4710     DT      R7
0222430E  8FFA     BF/S    $02224306
02224310  2106     MOV.L   R0,@-R1
02224312  D106     MOV.L   @($0222432C,PC),R1
02224314  D706     MOV.L   @($02224330,PC),R7
02224316  E000     MOV     #$00,R0
02224318  4710     DT      R7
0222431A  8FFD     BF/S    $02224318
0222431C  2106     MOV.L   R0,@-R1
0222431E  000B     RTS

; === polygon_dispatch_6way ===
02224320  0009     NOP
02224322  0000     DW      $0000
02224324  0603     DW      $0603
02224326  3000     CMP/EQ  R0,R0
02224328  0000     DW      $0000
0222432A  1300     MOV.L   R0,@($0,R3)
0222432C  0600     DW      $0600
0222432E  EE00     MOV     #$00,R14
02224330  0000     DW      $0000
02224332  04C0     DW      $04C0
02224334  4F22     STS.L   PR,@-R15    ; Push PR
02224336  D00C     MOV.L   @($02224368,PC),R0
02224338  400B     JSR     @R0
0222433A  0009     NOP
0222433C  D00B     MOV.L   @($0222436C,PC),R0
0222433E  400B     JSR     @R0
02224340  E101     MOV     #$01,R1
02224342  E610     MOV     #$10,R6
02224344  D70A     MOV.L   @($02224370,PC),R7
02224346  DA0B     MOV.L   @($02224374,PC),R10
02224348  DB0B     MOV.L   @($02224378,PC),R11
0222434A  D00C     MOV.L   @($0222437C,PC),R0
0222434C  400B     JSR     @R0
0222434E  0009     NOP
02224350  D00B     MOV.L   @($02224380,PC),R0
02224352  400B     JSR     @R0
02224354  0009     NOP
02224356  D00B     MOV.L   @($02224384,PC),R0
02224358  400B     JSR     @R0
0222435A  0009     NOP
0222435C  D00A     MOV.L   @($02224388,PC),R0
0222435E  400B     JSR     @R0
02224360  0009     NOP
02224362  4F26     LDS.L   @R15+,PR    ; Pop PR
02224364  000B     RTS

; === polygon_dispatch_variant ===
02224366  0009     NOP
02224368  0600     DW      $0600
0222436A  3348     SUB     R4,R3
0222436C  0600     DW      $0600
0222436E  441C     DW      $441C
02224370  0000     DW      $0000
02224372  04C0     DW      $04C0
02224374  0600     DW      $0600
02224376  EDFC     MOV     #$FC,R13
02224378  0603     DW      $0603
0222437A  2FF0     MOV.B   R15,@R15
0222437C  C000     DW      $C000
0222437E  0022     DW      $0022
02224380  0600     DW      $0600
02224382  34EE     ADDC    R14,R4
02224384  0600     DW      $0600
02224386  4438     DW      $4438
02224388  0600     DW      $0600
0222438A  43E0     DW      $43E0
0222438C  4F22     STS.L   PR,@-R15    ; Push PR
0222438E  D00C     MOV.L   @($022243C0,PC),R0
02224390  400B     JSR     @R0
02224392  0009     NOP
02224394  D00B     MOV.L   @($022243C4,PC),R0
02224396  400B     JSR     @R0
02224398  E101     MOV     #$01,R1
0222439A  D10B     MOV.L   @($022243C8,PC),R1
0222439C  6711     MOV.W   @R1,R7
0222439E  D80B     MOV.L   @($022243CC,PC),R8
022243A0  D00B     MOV.L   @($022243D0,PC),R0
022243A2  400B     JSR     @R0
022243A4  0009     NOP
022243A6  D00B     MOV.L   @($022243D4,PC),R0
022243A8  400B     JSR     @R0
022243AA  0009     NOP
022243AC  D00A     MOV.L   @($022243D8,PC),R0
022243AE  400B     JSR     @R0
022243B0  0009     NOP
022243B2  D00A     MOV.L   @($022243DC,PC),R0
022243B4  400B     JSR     @R0
022243B6  0009     NOP
022243B8  4F26     LDS.L   @R15+,PR    ; Pop PR
022243BA  000B     RTS
022243BC  0009     NOP
022243BE  0000     DW      $0000
022243C0  0600     DW      $0600
022243C2  3348     SUB     R4,R3
022243C4  0600     DW      $0600
022243C6  441C     DW      $441C
022243C8  0600     DW      $0600
022243CA  F200     DW      $F200
022243CC  0601     DW      $0601
022243CE  6000     MOV.B   @R0,R0
022243D0  C000     DW      $C000
022243D2  0160     DW      $0160
022243D4  0600     DW      $0600
022243D6  34EE     ADDC    R14,R4
022243D8  0600     DW      $0600
022243DA  4438     DW      $4438
022243DC  0600     DW      $0600
022243DE  43E0     DW      $43E0
022243E0  D102     MOV.L   @($022243EC,PC),R1
022243E2  8515     MOV.B   R0,@($5,R5)
022243E4  C802     DW      $C802
022243E6  8BFC     BF      $022243E2
022243E8  000B     RTS
022243EA  0009     NOP
022243EC  2000     MOV.B   R0,@R0
022243EE  4100     SHLL    R1
022243F0  D106     MOV.L   @($0222440C,PC),R1
022243F2  8410     MOV.B   R0,@($0,R4)
022243F4  C880     DW      $C880
022243F6  8901     BT      $022243FC
022243F8  D105     MOV.L   @($02224410,PC),R1
022243FA  8510     MOV.B   R0,@($0,R5)
022243FC  D105     MOV.L   @($02224414,PC),R1
022243FE  E000     MOV     #$00,R0
02224400  2100     MOV.B   R0,@R1
02224402  D105     MOV.L   @($02224418,PC),R1
02224404  6010     MOV.B   @R1,R0
02224406  CB01     DW      $CB01
02224408  000B     RTS
0222440A  2100     MOV.B   R0,@R1
0222440C  2000     MOV.B   R0,@R0
0222440E  4000     SHLL    R0
02224410  2000     MOV.B   R0,@R0
02224412  4100     SHLL    R1
02224414  2000     MOV.B   R0,@R0
02224416  4020     SHAL    R0
02224418  2000     MOV.B   R0,@R0
0222441A  4023     DW      $4023
0222441C  D202     MOV.L   @($02224428,PC),R2
0222441E  6020     MOV.B   @R2,R0
02224420  8800     CMP/EQ  #$00,R0
02224422  8BFC     BF      $0222441E
02224424  000B     RTS
02224426  2210     MOV.B   R1,@R2
02224428  2000     MOV.B   R0,@R0
0222442A  4024     ROTCL   R0
0222442C  D101     MOV.L   @($02224434,PC),R1
0222442E  E000     MOV     #$00,R0
02224430  000B     RTS
02224432  2100     MOV.B   R0,@R1
02224434  2000     MOV.B   R0,@R0
02224436  4024     ROTCL   R0
02224438  D102     MOV.L   @($02224444,PC),R1
0222443A  6010     MOV.B   @R1,R0
0222443C  8800     CMP/EQ  #$00,R0
0222443E  8BFC     BF      $0222443A
02224440  000B     RTS
02224442  0009     NOP
02224444  2000     MOV.B   R0,@R0
02224446  4024     ROTCL   R0
02224448  980F     MOV.W   @(${target:08X},PC),R8
0222444A  D908     MOV.L   @($0222446C,PC),R9
0222444C  D008     MOV.L   @($02224470,PC),R0
0222444E  1800     MOV.L   R0,@($0,R8)
02224450  1811     MOV.L   R1,@($4,R8)
02224452  8598     MOV.B   R0,@($8,R5)
02224454  1802     MOV.L   R0,@($8,R8)
02224456  D007     MOV.L   @($02224474,PC),R0
02224458  1803     MOV.L   R0,@($C,R8)
0222445A  D007     MOV.L   @($02224478,PC),R0
0222445C  180C     MOV.L   R0,@($30,R8)
0222445E  D107     MOV.L   @($0222447C,PC),R1
02224460  6010     MOV.B   @R1,R0
02224462  CB02     DW      $CB02
02224464  2100     MOV.B   R0,@R1
02224466  000B     RTS
02224468  0009     NOP
0222446A  FF80     DW      $FF80
0222446C  2000     MOV.B   R0,@R0
0222446E  4000     SHLL    R0
02224470  2000     MOV.B   R0,@R0
02224472  4012     DW      $4012
02224474  0000     DW      $0000
02224476  44E1     DW      $44E1
02224478  0000     DW      $0000
0222447A  0001     DW      $0001
0222447C  2000     MOV.B   R0,@R0
0222447E  4023     DW      $4023
02224480  DE03     MOV.L   @($02224490,PC),R14
02224482  50E3     MOV.L   @($C,R14),R0
02224484  C802     DW      $C802
02224486  89FC     BT      $02224482
02224488  E000     MOV     #$00,R0
0222448A  A09F     BRA     $022245CC
0222448C  1E0C     MOV.L   R0,@($30,R14)
0222448E  0000     DW      $0000
02224490  FFFF     DW      $FFFF
02224492  FF80     DW      $FF80
02224494  D806     MOV.L   @($022244B0,PC),R8
02224496  9007     MOV.W   @(${target:08X},PC),R0
02224498  9107     MOV.W   @(${target:08X},PC),R1
0222449A  9707     MOV.W   @(${target:08X},PC),R7
0222449C  2805     MOV.W   R0,@-R8
0222449E  3018     SUB     R1,R0
022244A0  4710     DT      R7
022244A2  8BFB     BF      $0222449C
022244A4  000B     RTS
022244A6  0009     NOP
022244A8  FF00     DW      $FF00
022244AA  0100     DW      $0100
022244AC  00E0     DW      $00E0
022244AE  0000     DW      $0000
022244B0  2400     MOV.B   R0,@R4
022244B2  01C0     DW      $01C0
022244B4  DE05     MOV.L   @($022244CC,PC),R14
022244B6  D106     MOV.L   @($022244D0,PC),R1
022244B8  85E5     MOV.B   R0,@($5,R5)
022244BA  2018     TST     R1,R0
022244BC  89FC     BT      $022244B8
022244BE  C801     DW      $C801
022244C0  E000     MOV     #$00,R0
022244C2  8B00     BF      $022244C6
022244C4  E001     MOV     #$01,R0
022244C6  81E5     MOV.B   R0,@($5,R1)
022244C8  000B     RTS
022244CA  0009     NOP
022244CC  2000     MOV.B   R0,@R0
022244CE  4100     SHLL    R1
022244D0  0000     DW      $0000
022244D2  8000     MOV.B   R0,@($0,R0)
022244D4  DE04     MOV.L   @($022244E8,PC),R14
022244D6  D205     MOV.L   @($022244EC,PC),R2
022244D8  85E5     MOV.B   R0,@($5,R5)
022244DA  2028     TST     R2,R0
022244DC  89FC     BT      $022244D8
022244DE  6013     MOV     R1,R0
022244E0  81E5     MOV.B   R0,@($5,R1)
022244E2  000B     RTS
022244E4  0009     NOP
022244E6  0000     DW      $0000
022244E8  2000     MOV.B   R0,@R0
022244EA  4100     SHLL    R1
022244EC  0000     DW      $0000
022244EE  8000     MOV.B   R0,@($0,R0)
022244F0  9116     MOV.W   @(${target:08X},PC),R1
022244F2  9216     MOV.W   @(${target:08X},PC),R2
022244F4  9316     MOV.W   @(${target:08X},PC),R3
022244F6  DE0D     MOV.L   @($0222452C,PC),R14
022244F8  6023     MOV     R2,R0
022244FA  81E2     MOV.B   R0,@($2,R1)
022244FC  9213     MOV.W   @(${target:08X},PC),R2
022244FE  6013     MOV     R1,R0
02224500  81E3     MOV.B   R0,@($3,R1)
02224502  312C     ADD     R2,R1
02224504  E000     MOV     #$00,R0
02224506  81E4     MOV.B   R0,@($4,R1)
02224508  970E     MOV.W   @(${target:08X},PC),R7
0222450A  4710     DT      R7
0222450C  8BFD     BF      $0222450A
0222450E  E700     MOV     #$00,R7
02224510  7701     ADD     #$01,R7
02224512  85E5     MOV.B   R0,@($5,R5)
02224514  C802     DW      $C802
02224516  8BFB     BF      $02224510
02224518  4310     DT      R3
0222451A  8BF0     BF      $022244FE
0222451C  000B     RTS
0222451E  0009     NOP
02224520  3000     CMP/EQ  R0,R0
02224522  009F     MAC.L   @R9+,@R0+
02224524  00C0     DW      $00C0
02224526  0100     DW      $0100
02224528  007D     DW      $007D
0222452A  0000     DW      $0000
0222452C  2000     MOV.B   R0,@R0
0222452E  4100     SHLL    R1
02224530  E000     MOV     #$00,R0
02224532  920C     MOV.W   @(${target:08X},PC),R2
02224534  970C     MOV.W   @(${target:08X},PC),R7
02224536  E614     MOV     #$14,R6
02224538  2106     MOV.L   R0,@-R1
0222453A  2106     MOV.L   R0,@-R1
0222453C  2106     MOV.L   R0,@-R1
0222453E  2106     MOV.L   R0,@-R1
02224540  4610     DT      R6
02224542  8BF9     BF      $02224538
02224544  4710     DT      R7
02224546  8FF6     BF/S    $02224536
02224548  3128     SUB     R2,R1
0222454A  000B     RTS
0222454C  0009     NOP
0222454E  00C0     DW      $00C0
02224550  0060     DW      $0060
02224552  D804     MOV.L   @($02224564,PC),R8
02224554  D704     MOV.L   @($02224568,PC),R7
02224556  E000     MOV     #$00,R0
02224558  2806     MOV.L   R0,@-R8
0222455A  4710     DT      R7
0222455C  8BFC     BF      $02224558
0222455E  000B     RTS
02224560  0009     NOP
02224562  0000     DW      $0000
02224564  2402     MOV.L   R0,@R4
02224566  0000     DW      $0000
02224568  0000     DW      $0000
0222456A  8000     MOV.B   R0,@($0,R0)
0222456C  000B     RTS
0222456E  0009     NOP
02224570  D10B     MOV.L   @($022245A0,PC),R1
02224572  D20C     MOV.L   @($022245A4,PC),R2
02224574  8525     MOV.B   R0,@($5,R5)
02224576  C802     DW      $C802
02224578  8B0D     BF      $02224596
0222457A  6011     MOV.W   @R1,R0
0222457C  4010     DT      R0
0222457E  890A     BT      $02224596
02224580  2101     MOV.W   R0,@R1
02224582  8511     MOV.B   R0,@($1,R5)
02224584  8123     MOV.B   R0,@($3,R1)
02224586  9008     MOV.W   @(${target:08X},PC),R0
02224588  8122     MOV.B   R0,@($2,R1)
0222458A  E000     MOV     #$00,R0
0222458C  8124     MOV.B   R0,@($4,R1)
0222458E  8511     MOV.B   R0,@($1,R5)
02224590  9204     MOV.W   @(${target:08X},PC),R2
02224592  302C     ADD     R2,R0
02224594  8111     MOV.B   R0,@($1,R1)
02224596  000B     RTS

; === recursive_list_proc ===
02224598  0009     NOP
0222459A  009F     MAC.L   @R9+,@R0+
0222459C  0100     DW      $0100
0222459E  0000     DW      $0000
022245A0  0600     DW      $0600
022245A2  F208     DW      $F208
022245A4  2000     MOV.B   R0,@R0
022245A6  4100     SHLL    R1
022245A8  D406     MOV.L   @($022245C4,PC),R4
022245AA  4F22     STS.L   PR,@-R15    ; Push PR
022245AC  B002     BSR     $022245B4
022245AE  0009     NOP
022245B0  4F26     LDS.L   @R15+,PR    ; Pop PR
022245B2  D405     MOV.L   @($022245C8,PC),R4
022245B4  6345     MOV.W   @R4+,R3
022245B6  6145     MOV.W   @R4+,R1
022245B8  9203     MOV.W   @(${target:08X},PC),R2
022245BA  4310     DT      R3
022245BC  8B9B     BF      $022244F6
022245BE  000B     RTS
022245C0  0009     NOP
022245C2  009F     MAC.L   @R9+,@R0+
022245C4  0600     DW      $0600
022245C6  F208     DW      $F208
022245C8  2600     MOV.B   R0,@R6
022245CA  F20C     DW      $F20C
022245CC  910C     MOV.W   @(${target:08X},PC),R1
022245CE  E010     MOV     #$10,R0
022245D0  2100     MOV.B   R0,@R1
022245D2  0009     NOP
022245D4  0009     NOP
022245D6  0009     NOP
022245D8  0009     NOP
022245DA  0009     NOP
022245DC  0009     NOP
022245DE  0009     NOP
022245E0  0009     NOP
022245E2  E009     MOV     #$09,R0
022245E4  000B     RTS
022245E6  2100     MOV.B   R0,@R1
022245E8  FE92     DW      $FE92
022245EA  9212     MOV.W   @(${target:08X},PC),R2
022245EC  4108     SHLL2   R1
022245EE  4108     SHLL2   R1
022245F0  2210     MOV.B   R1,@R2
022245F2  D308     MOV.L   @($02224614,PC),R3
022245F4  E710     MOV     #$10,R7
022245F6  E000     MOV     #$00,R0
022245F8  2302     MOV.L   R0,@R3
022245FA  7310     ADD     #$10,R3
022245FC  2302     MOV.L   R0,@R3
022245FE  7310     ADD     #$10,R3
02224600  2302     MOV.L   R0,@R3
02224602  7310     ADD     #$10,R3
02224604  2302     MOV.L   R0,@R3
02224606  7310     ADD     #$10,R3
02224608  4710     DT      R7
0222460A  8BF5     BF      $022245F8
0222460C  E009     MOV     #$09,R0
0222460E  000B     RTS
02224610  2200     MOV.B   R0,@R2
02224612  FE92     DW      $FE92
02224614  6000     MOV.B   @R0,R0
02224616  0000     DW      $0000
02224618  9E0F     MOV.W   @(${target:08X},PC),R14
0222461A  E000     MOV     #$00,R0
0222461C  80E2     MOV.B   R0,@($2,R0)
0222461E  E080     MOV     #$80,R0
02224620  80E0     MOV.B   R0,@($0,R0)
02224622  900B     MOV.W   @(${target:08X},PC),R0
02224624  80E1     MOV.B   R0,@($1,R0)
02224626  E000     MOV     #$00,R0
02224628  80E2     MOV.B   R0,@($2,R0)
0222462A  0009     NOP
0222462C  0009     NOP
0222462E  0009     NOP
02224630  0009     NOP
02224632  E020     MOV     #$20,R0
02224634  80E2     MOV.B   R0,@($2,R0)
02224636  000B     RTS
02224638  0009     NOP
0222463A  FE00     DW      $FE00
0222463C  000D     DW      $000D
0222463E  9E0F     MOV.W   @(${target:08X},PC),R14
02224640  E000     MOV     #$00,R0
02224642  80E2     MOV.B   R0,@($2,R0)
02224644  E080     MOV     #$80,R0
02224646  80E0     MOV.B   R0,@($0,R0)
02224648  900B     MOV.W   @(${target:08X},PC),R0
0222464A  80E1     MOV.B   R0,@($1,R0)
0222464C  E002     MOV     #$02,R0
0222464E  80E2     MOV.B   R0,@($2,R0)
02224650  0009     NOP
02224652  0009     NOP
02224654  0009     NOP
02224656  0009     NOP
02224658  E010     MOV     #$10,R0
0222465A  80E2     MOV.B   R0,@($2,R0)
0222465C  000B     RTS
0222465E  0009     NOP
02224660  FE00     DW      $FE00
02224662  000D     DW      $000D
02224664  D10B     MOV.L   @($02224694,PC),R1
02224666  4008     SHLL2   R0
02224668  4000     SHLL    R0
0222466A  301C     ADD     R1,R0
0222466C  6102     MOV.L   @R0,R1
0222466E  5701     MOV.L   @($4,R0),R7
02224670  3718     SUB     R1,R7
02224672  4701     SHLR    R7
02224674  D208     MOV.L   @($02224698,PC),R2
02224676  6015     MOV.W   @R1+,R0
02224678  2201     MOV.W   R0,@R2
0222467A  4710     DT      R7
0222467C  8FFB     BF/S    $02224676
0222467E  7202     ADD     #$02,R2
02224680  D106     MOV.L   @($0222469C,PC),R1
02224682  D207     MOV.L   @($022246A0,PC),R2
02224684  D707     MOV.L   @($022246A4,PC),R7
02224686  6015     MOV.W   @R1+,R0
02224688  2201     MOV.W   R0,@R2
0222468A  4710     DT      R7
0222468C  8FFB     BF/S    $02224686
0222468E  7202     ADD     #$02,R2
02224690  000B     RTS

; === sincos_lookup_table ===
02224692  0009     NOP
02224694  0600     DW      $0600
02224696  46A8     DW      $46A8
02224698  0603     DW      $0603
0222469A  C000     DW      $C000
0222469C  2228     TST     R2,R2
0222469E  C43C     DW      $C43C
022246A0  0603     DW      $0603
022246A2  3000     CMP/EQ  R0,R0
022246A4  0000     DW      $0000
022246A6  44EB     DW      $44EB
022246A8  0000     DW      $0000
022246AA  0000     DW      $0000
022246AC  0000     DW      $0000
022246AE  0000     DW      $0000
022246B0  2228     TST     R2,R2
022246B2  0000     DW      $0000
022246B4  2228     TST     R2,R2
022246B6  3D96     CMP/HI  R9,R13
022246B8  2228     TST     R2,R2
022246BA  3D96     CMP/HI  R9,R13
022246BC  2228     TST     R2,R2
022246BE  6EE2     MOV.L   @R14,R14
022246C0  2228     TST     R2,R2
022246C2  6EE2     MOV.L   @R14,R14
022246C4  2228     TST     R2,R2
022246C6  9CC8     MOV.W   @(${target:08X},PC),R12
022246C8  2228     TST     R2,R2
022246CA  9CC8     MOV.W   @(${target:08X},PC),R12
022246CC  2228     TST     R2,R2
022246CE  C43C     DW      $C43C
022246D0  FFC0     DW      $FFC0
022246D2  FFC0     DW      $FFC0
022246D4  FFC0     DW      $FFC0
022246D6  FFC0     DW      $FFC0
022246D8  FFBF     DW      $FFBF
022246DA  FFBF     DW      $FFBF
022246DC  FFBF     DW      $FFBF
022246DE  FFBF     DW      $FFBF
022246E0  FFBE     DW      $FFBE
022246E2  FFBE     DW      $FFBE
022246E4  FFBE     DW      $FFBE
022246E6  FFBE     DW      $FFBE
022246E8  FFBD     DW      $FFBD
022246EA  FFBD     DW      $FFBD
022246EC  FFBD     DW      $FFBD
022246EE  FFBD     DW      $FFBD
022246F0  FFBC     DW      $FFBC
022246F2  FFBC     DW      $FFBC
022246F4  FFBC     DW      $FFBC
022246F6  FFBB     DW      $FFBB
022246F8  FFBB     DW      $FFBB
022246FA  FFBB     DW      $FFBB
022246FC  FFBA     DW      $FFBA
022246FE  FFBA     DW      $FFBA
02224700  FFBA     DW      $FFBA
02224702  FFBA     DW      $FFBA
02224704  FFB9     DW      $FFB9
02224706  FFB9     DW      $FFB9
02224708  FFB9     DW      $FFB9
0222470A  FFB8     DW      $FFB8
0222470C  FFB8     DW      $FFB8
0222470E  FFB8     DW      $FFB8
02224710  FFB7     DW      $FFB7
02224712  FFB7     DW      $FFB7
02224714  FFB7     DW      $FFB7
02224716  FFB6     DW      $FFB6
02224718  FFB6     DW      $FFB6
0222471A  FFB6     DW      $FFB6
0222471C  FFB5     DW      $FFB5
0222471E  FFB5     DW      $FFB5
02224720  FFB5     DW      $FFB5
02224722  FFB4     DW      $FFB4
02224724  FFB4     DW      $FFB4
02224726  FFB4     DW      $FFB4
02224728  FFB3     DW      $FFB3
0222472A  FFB3     DW      $FFB3
0222472C  FFB2     DW      $FFB2
0222472E  FFB2     DW      $FFB2
02224730  FFB2     DW      $FFB2
02224732  FFB1     DW      $FFB1
02224734  FFB1     DW      $FFB1
02224736  FFB1     DW      $FFB1
02224738  FFB0     DW      $FFB0
0222473A  FFB0     DW      $FFB0
0222473C  FFAF     DW      $FFAF
0222473E  FFAF     DW      $FFAF
02224740  FFAF     DW      $FFAF
02224742  FFAE     DW      $FFAE
02224744  FFAE     DW      $FFAE
02224746  FFAD     DW      $FFAD
02224748  FFAD     DW      $FFAD
0222474A  FFAC     DW      $FFAC
0222474C  FFAC     DW      $FFAC
0222474E  FFAC     DW      $FFAC
02224750  FFAB     DW      $FFAB
02224752  FFAB     DW      $FFAB
02224754  FFAA     DW      $FFAA
02224756  FFAA     DW      $FFAA
02224758  FFA9     DW      $FFA9
0222475A  FFA9     DW      $FFA9
0222475C  FFA8     DW      $FFA8
0222475E  FFA8     DW      $FFA8
02224760  FFA7     DW      $FFA7
02224762  FFA7     DW      $FFA7
02224764  FFA6     DW      $FFA6
02224766  FFA6     DW      $FFA6
02224768  FFA5     DW      $FFA5
0222476A  FFA5     DW      $FFA5
0222476C  FFA4     DW      $FFA4
0222476E  FFA4     DW      $FFA4
02224770  FFA3     DW      $FFA3
02224772  FFA3     DW      $FFA3
02224774  FFA2     DW      $FFA2
02224776  FFA2     DW      $FFA2
02224778  FFA1     DW      $FFA1
0222477A  FFA1     DW      $FFA1
0222477C  FFA0     DW      $FFA0
0222477E  FFA0     DW      $FFA0
02224780  FF9F     DW      $FF9F
02224782  FF9E     DW      $FF9E
02224784  FF9E     DW      $FF9E
02224786  FF9D     DW      $FF9D
02224788  FF9D     DW      $FF9D
0222478A  FF9C     DW      $FF9C
0222478C  FF9B     DW      $FF9B
0222478E  FF9B     DW      $FF9B
02224790  FF9A     DW      $FF9A
02224792  FF99     DW      $FF99
02224794  FF99     DW      $FF99
02224796  FF98     DW      $FF98
02224798  FF97     DW      $FF97
0222479A  FF97     DW      $FF97
0222479C  FF96     DW      $FF96
0222479E  FF95     DW      $FF95
022247A0  FF95     DW      $FF95
022247A2  FF94     DW      $FF94
022247A4  FF93     DW      $FF93
022247A6  FF93     DW      $FF93
022247A8  FF92     DW      $FF92
022247AA  FF91     DW      $FF91
022247AC  FF90     DW      $FF90
022247AE  FF90     DW      $FF90
022247B0  FF8F     DW      $FF8F
022247B2  FF8E     DW      $FF8E
022247B4  FF8D     DW      $FF8D
022247B6  FF8C     DW      $FF8C
022247B8  FF8B     DW      $FF8B
022247BA  FF8B     DW      $FF8B
022247BC  FF8A     DW      $FF8A
022247BE  FF89     DW      $FF89
022247C0  FF88     DW      $FF88
022247C2  FF87     DW      $FF87
022247C4  FF86     DW      $FF86
022247C6  FF85     DW      $FF85
022247C8  FF84     DW      $FF84
022247CA  FF83     DW      $FF83
022247CC  FF82     DW      $FF82
022247CE  FF81     DW      $FF81
022247D0  FF80     DW      $FF80
022247D2  FF7F     DW      $FF7F
022247D4  FF7E     DW      $FF7E
022247D6  FF7D     DW      $FF7D
022247D8  FF7C     DW      $FF7C
022247DA  FF7B     DW      $FF7B
022247DC  FF7A     DW      $FF7A
022247DE  FF79     DW      $FF79
022247E0  FF78     DW      $FF78
022247E2  FF77     DW      $FF77
022247E4  FF76     DW      $FF76
022247E6  FF74     DW      $FF74
022247E8  FF73     DW      $FF73
022247EA  FF72     DW      $FF72
022247EC  FF71     DW      $FF71
022247EE  FF70     DW      $FF70
022247F0  FF6E     DW      $FF6E
022247F2  FF6D     DW      $FF6D
022247F4  FF6C     DW      $FF6C
022247F6  FF6A     DW      $FF6A
022247F8  FF69     DW      $FF69
022247FA  FF67     DW      $FF67
022247FC  FF66     DW      $FF66
022247FE  FF64     DW      $FF64
02224800  FF63     DW      $FF63
02224802  FF61     DW      $FF61
02224804  FF60     DW      $FF60
02224806  FF5E     DW      $FF5E
02224808  FF5D     DW      $FF5D
0222480A  FF5B     DW      $FF5B
0222480C  FF59     DW      $FF59
0222480E  FF58     DW      $FF58
02224810  FF56     DW      $FF56
02224812  FF54     DW      $FF54
02224814  FF52     DW      $FF52
02224816  FF50     DW      $FF50
02224818  FF4E     DW      $FF4E
0222481A  FF4C     DW      $FF4C
0222481C  FF4A     DW      $FF4A
0222481E  FF48     DW      $FF48
02224820  FF46     DW      $FF46
02224822  FF44     DW      $FF44
02224824  FF42     DW      $FF42
02224826  FF40     DW      $FF40
02224828  FF3D     DW      $FF3D
0222482A  FF3B     DW      $FF3B
0222482C  FF39     DW      $FF39
0222482E  FF36     DW      $FF36
02224830  FF34     DW      $FF34
02224832  FF31     DW      $FF31
02224834  FF2E     DW      $FF2E
02224836  FF2C     DW      $FF2C
02224838  FF29     DW      $FF29
0222483A  FF26     DW      $FF26
0222483C  FF23     DW      $FF23
0222483E  FF20     DW      $FF20
02224840  FF1D     DW      $FF1D
02224842  FF1A     DW      $FF1A
02224844  FF16     DW      $FF16
02224846  FF13     DW      $FF13
02224848  FF10     DW      $FF10
0222484A  FF0C     DW      $FF0C
0222484C  FF08     DW      $FF08
0222484E  FF04     DW      $FF04
02224850  FF00     DW      $FF00
02224852  FEFC     DW      $FEFC
02224854  FEF8     DW      $FEF8
02224856  FEF4     DW      $FEF4
02224858  FEEF     DW      $FEEF
0222485A  FEEB     DW      $FEEB
0222485C  FEE6     DW      $FEE6
0222485E  FEE1     DW      $FEE1
02224860  FEDC     DW      $FEDC
02224862  FED7     DW      $FED7
02224864  FED1     DW      $FED1
02224866  FECB     DW      $FECB
02224868  FEC5     DW      $FEC5
0222486A  FEBF     DW      $FEBF
0222486C  FEB9     DW      $FEB9
0222486E  FEB2     DW      $FEB2
02224870  FEAB     DW      $FEAB
02224872  FEA4     DW      $FEA4
02224874  FE9C     DW      $FE9C
02224876  FE94     DW      $FE94
02224878  FE8C     DW      $FE8C
0222487A  FE83     DW      $FE83
0222487C  FE7A     DW      $FE7A
0222487E  FE71     DW      $FE71
02224880  FE67     DW      $FE67
02224882  FE5C     DW      $FE5C
02224884  FE51     DW      $FE51
02224886  FE46     DW      $FE46
02224888  FE39     DW      $FE39
0222488A  FE2C     DW      $FE2C
0222488C  FE1F     DW      $FE1F
0222488E  FE10     DW      $FE10
02224890  FE00     DW      $FE00
02224892  FDF0     DW      $FDF0
02224894  FDDE     DW      $FDDE
02224896  FDCC     DW      $FDCC
02224898  FDB7     DW      $FDB7
0222489A  FDA2     DW      $FDA2
0222489C  FD8A     DW      $FD8A
0222489E  FD71     DW      $FD71
022248A0  FD56     DW      $FD56
022248A2  FD38     DW      $FD38
022248A4  FD18     DW      $FD18
022248A6  FCF4     DW      $FCF4
022248A8  FCCD     DW      $FCCD
022248AA  FCA2     DW      $FCA2
022248AC  FC72     DW      $FC72
022248AE  FC3D     DW      $FC3D
022248B0  FC00     DW      $FC00
022248B2  FBBC     DW      $FBBC
022248B4  FB6E     DW      $FB6E
022248B6  FB14     DW      $FB14
022248B8  FAAB     DW      $FAAB
022248BA  FA2F     DW      $FA2F
022248BC  F99A     DW      $F99A
022248BE  F8E4     DW      $F8E4
022248C0  F800     DW      $F800
022248C2  F6DC     DW      $F6DC
022248C4  F556     DW      $F556
022248C6  F334     DW      $F334
022248C8  F000     DW      $F000
022248CA  EAAB     MOV     #$AB,R10
022248CC  E000     MOV     #$00,R0
022248CE  C000     DW      $C000
022248D0  7FFF     ADD     #$FF,R15
022248D2  4000     SHLL    R0
022248D4  2000     MOV.B   R0,@R0
022248D6  1555     MOV.L   R5,@($14,R5)
022248D8  1000     MOV.L   R0,@($0,R0)
022248DA  0CCC     DW      $0CCC
022248DC  0AAA     DW      $0AAA
022248DE  0924     DW      $0924
022248E0  0800     DW      $0800
022248E2  071C     DW      $071C
022248E4  0666     DW      $0666
022248E6  05D1     DW      $05D1
022248E8  0555     DW      $0555
022248EA  04EC     DW      $04EC
022248EC  0492     DW      $0492
022248EE  0444     DW      $0444
022248F0  0400     DW      $0400
022248F2  03C3     DW      $03C3
022248F4  038E     DW      $038E
022248F6  035E     DW      $035E
022248F8  0333     DW      $0333
022248FA  030C     DW      $030C
022248FC  02E8     DW      $02E8
022248FE  02C8     DW      $02C8
02224900  02AA     DW      $02AA
02224902  028F     MAC.L   @R8+,@R2+
02224904  0276     DW      $0276
02224906  025E     DW      $025E
02224908  0249     DW      $0249
0222490A  0234     DW      $0234
0222490C  0222     DW      $0222
0222490E  0210     DW      $0210
02224910  0200     DW      $0200
02224912  01F0     DW      $01F0
02224914  01E1     DW      $01E1
02224916  01D4     DW      $01D4
02224918  01C7     DW      $01C7
0222491A  01BA     DW      $01BA
0222491C  01AF     MAC.L   @R10+,@R1+
0222491E  01A4     DW      $01A4
02224920  0199     DW      $0199
02224922  018F     MAC.L   @R8+,@R1+
02224924  0186     DW      $0186
02224926  017D     DW      $017D
02224928  0174     DW      $0174
0222492A  016C     DW      $016C
0222492C  0164     DW      $0164
0222492E  015C     DW      $015C
02224930  0155     DW      $0155
02224932  014E     DW      $014E
02224934  0147     DW      $0147
02224936  0141     DW      $0141
02224938  013B     DW      $013B
0222493A  0135     DW      $0135
0222493C  012F     MAC.L   @R2+,@R1+
0222493E  0129     DW      $0129
02224940  0124     DW      $0124
02224942  011F     MAC.L   @R1+,@R1+
02224944  011A     STS     MACL,R1
02224946  0115     DW      $0115
02224948  0111     DW      $0111
0222494A  010C     DW      $010C
0222494C  0108     DW      $0108
0222494E  0104     DW      $0104
02224950  0100     DW      $0100
02224952  00FC     DW      $00FC
02224954  00F8     DW      $00F8
02224956  00F4     DW      $00F4
02224958  00F0     DW      $00F0
0222495A  00ED     DW      $00ED
0222495C  00EA     DW      $00EA
0222495E  00E6     DW      $00E6
02224960  00E3     DW      $00E3
02224962  00E0     DW      $00E0
02224964  00DD     DW      $00DD
02224966  00DA     DW      $00DA
02224968  00D7     DW      $00D7
0222496A  00D4     DW      $00D4
0222496C  00D2     DW      $00D2
0222496E  00CF     MAC.L   @R12+,@R0+
02224970  00CC     DW      $00CC
02224972  00CA     DW      $00CA
02224974  00C7     DW      $00C7
02224976  00C5     DW      $00C5
02224978  00C3     DW      $00C3
0222497A  00C0     DW      $00C0
0222497C  00BE     DW      $00BE
0222497E  00BC     DW      $00BC
02224980  00BA     DW      $00BA
02224982  00B8     DW      $00B8
02224984  00B6     DW      $00B6
02224986  00B4     DW      $00B4
02224988  00B2     DW      $00B2
0222498A  00B0     DW      $00B0
0222498C  00AE     DW      $00AE
0222498E  00AC     DW      $00AC
02224990  00AA     DW      $00AA
02224992  00A8     DW      $00A8
02224994  00A7     DW      $00A7
02224996  00A5     DW      $00A5
02224998  00A3     DW      $00A3
0222499A  00A2     DW      $00A2
0222499C  00A0     DW      $00A0
0222499E  009F     MAC.L   @R9+,@R0+
022249A0  009D     DW      $009D
022249A2  009C     DW      $009C
022249A4  009A     DW      $009A
022249A6  0099     DW      $0099
022249A8  0097     DW      $0097
022249AA  0096     DW      $0096
022249AC  0094     DW      $0094
022249AE  0093     DW      $0093
022249B0  0092     DW      $0092
022249B2  0090     DW      $0090
022249B4  008F     MAC.L   @R8+,@R0+
022249B6  008E     DW      $008E
022249B8  008D     DW      $008D
022249BA  008C     DW      $008C
022249BC  008A     DW      $008A
022249BE  0089     DW      $0089
022249C0  0088     DW      $0088
022249C2  0087     DW      $0087
022249C4  0086     DW      $0086
022249C6  0085     DW      $0085
022249C8  0084     DW      $0084
022249CA  0083     DW      $0083
022249CC  0082     DW      $0082
022249CE  0081     DW      $0081
022249D0  0080     DW      $0080
022249D2  007F     MAC.L   @R7+,@R0+
022249D4  007E     DW      $007E
022249D6  007D     DW      $007D
022249D8  007C     DW      $007C
022249DA  007B     DW      $007B
022249DC  007A     DW      $007A
022249DE  0079     DW      $0079
022249E0  0078     DW      $0078
022249E2  0077     DW      $0077
022249E4  0076     DW      $0076
022249E6  0075     DW      $0075
022249E8  0075     DW      $0075
022249EA  0074     DW      $0074
022249EC  0073     DW      $0073
022249EE  0072     DW      $0072
022249F0  0071     DW      $0071
022249F2  0070     DW      $0070
022249F4  0070     DW      $0070
022249F6  006F     MAC.L   @R6+,@R0+
022249F8  006E     DW      $006E
022249FA  006D     DW      $006D
022249FC  006D     DW      $006D
022249FE  006C     DW      $006C
02224A00  006B     DW      $006B
02224A02  006B     DW      $006B
02224A04  006A     DW      $006A
02224A06  0069     DW      $0069
02224A08  0069     DW      $0069
02224A0A  0068     DW      $0068
02224A0C  0067     DW      $0067
02224A0E  0067     DW      $0067
02224A10  0066     DW      $0066
02224A12  0065     DW      $0065
02224A14  0065     DW      $0065
02224A16  0064     DW      $0064
02224A18  0063     DW      $0063
02224A1A  0063     DW      $0063
02224A1C  0062     DW      $0062
02224A1E  0062     DW      $0062
02224A20  0061     DW      $0061
02224A22  0060     DW      $0060
02224A24  0060     DW      $0060
02224A26  005F     MAC.L   @R5+,@R0+
02224A28  005F     MAC.L   @R5+,@R0+
02224A2A  005E     DW      $005E
02224A2C  005E     DW      $005E
02224A2E  005D     DW      $005D
02224A30  005D     DW      $005D
02224A32  005C     DW      $005C
02224A34  005C     DW      $005C
02224A36  005B     DW      $005B
02224A38  005B     DW      $005B
02224A3A  005A     DW      $005A
02224A3C  005A     DW      $005A
02224A3E  0059     DW      $0059
02224A40  0059     DW      $0059
02224A42  0058     DW      $0058
02224A44  0058     DW      $0058
02224A46  0057     DW      $0057
02224A48  0057     DW      $0057
02224A4A  0056     DW      $0056
02224A4C  0056     DW      $0056
02224A4E  0055     DW      $0055
02224A50  0055     DW      $0055
02224A52  0054     DW      $0054
02224A54  0054     DW      $0054
02224A56  0054     DW      $0054
02224A58  0053     DW      $0053
02224A5A  0053     DW      $0053
02224A5C  0052     DW      $0052
02224A5E  0052     DW      $0052
02224A60  0051     DW      $0051
02224A62  0051     DW      $0051
02224A64  0051     DW      $0051
02224A66  0050     DW      $0050
02224A68  0050     DW      $0050
02224A6A  004F     MAC.L   @R4+,@R0+
02224A6C  004F     MAC.L   @R4+,@R0+
02224A6E  004F     MAC.L   @R4+,@R0+
02224A70  004E     DW      $004E
02224A72  004E     DW      $004E
02224A74  004E     DW      $004E
02224A76  004D     DW      $004D
02224A78  004D     DW      $004D
02224A7A  004C     DW      $004C
02224A7C  004C     DW      $004C
02224A7E  004C     DW      $004C
02224A80  004B     DW      $004B
02224A82  004B     DW      $004B
02224A84  004B     DW      $004B
02224A86  004A     DW      $004A
02224A88  004A     DW      $004A
02224A8A  004A     DW      $004A
02224A8C  0049     DW      $0049
02224A8E  0049     DW      $0049
02224A90  0049     DW      $0049
02224A92  0048     DW      $0048
02224A94  0048     DW      $0048
02224A96  0048     DW      $0048
02224A98  0047     DW      $0047
02224A9A  0047     DW      $0047
02224A9C  0047     DW      $0047
02224A9E  0046     DW      $0046
02224AA0  0046     DW      $0046
02224AA2  0046     DW      $0046
02224AA4  0046     DW      $0046
02224AA6  0045     DW      $0045
02224AA8  0045     DW      $0045
02224AAA  0045     DW      $0045
02224AAC  0044     DW      $0044
02224AAE  0044     DW      $0044
02224AB0  0044     DW      $0044
02224AB2  0043     DW      $0043
02224AB4  0043     DW      $0043
02224AB6  0043     DW      $0043
02224AB8  0043     DW      $0043
02224ABA  0042     DW      $0042
02224ABC  0042     DW      $0042
02224ABE  0042     DW      $0042
02224AC0  0042     DW      $0042
02224AC2  0041     DW      $0041
02224AC4  0041     DW      $0041
02224AC6  0041     DW      $0041
02224AC8  0041     DW      $0041
02224ACA  0040     DW      $0040
02224ACC  0040     DW      $0040
02224ACE  0040     DW      $0040
02224AD0  4F22     STS.L   PR,@-R15    ; Push PR
02224AD2  D107     MOV.L   @($02224AF0,PC),R1
02224AD4  D207     MOV.L   @($02224AF4,PC),R2
02224AD6  6912     MOV.L   @R1,R9
02224AD8  E300     MOV     #$00,R3
02224ADA  2231     MOV.W   R3,@R2
02224ADC  DD06     MOV.L   @($02224AF8,PC),R13
02224ADE  B00F     BSR     $02224B00
02224AE0  0009     NOP
02224AE2  D006     MOV.L   @($02224AFC,PC),R0
02224AE4  400B     JSR     @R0
02224AE6  0009     NOP
02224AE8  4F26     LDS.L   @R15+,PR    ; Pop PR
02224AEA  000B     RTS

; === register_save_wrapper ===
02224AEC  0009     NOP
02224AEE  0000     DW      $0000
02224AF0  2000     MOV.B   R0,@R0
02224AF2  4028     SHLL16  R0
02224AF4  2000     MOV.B   R0,@R0
02224AF6  402C     DW      $402C
02224AF8  0600     DW      $0600
02224AFA  C000     DW      $C000
02224AFC  0600     DW      $0600
02224AFE  43FC     DW      $43FC
02224B00  4F22     STS.L   PR,@-R15    ; Push PR
02224B02  2F06     MOV.L   R0,@-R15
02224B04  2F16     MOV.L   R1,@-R15
02224B06  2F26     MOV.L   R2,@-R15
02224B08  2F36     MOV.L   R3,@-R15
02224B0A  2F46     MOV.L   R4,@-R15
02224B0C  2F56     MOV.L   R5,@-R15
02224B0E  2F66     MOV.L   R6,@-R15
02224B10  2F76     MOV.L   R7,@-R15
02224B12  2F86     MOV.L   R8,@-R15
02224B14  2F96     MOV.L   R9,@-R15
02224B16  2FA6     MOV.L   R10,@-R15
02224B18  2FB6     MOV.L   R11,@-R15
02224B1A  2FC6     MOV.L   R12,@-R15
02224B1C  2FD6     MOV.L   R13,@-R15
02224B1E  2FE6     MOV.L   R14,@-R15
02224B20  C749     DW      $C749
02224B22  6C03     MOV     R0,R12
02224B24  DA15     MOV.L   @($02224B7C,PC),R10
02224B26  6395     MOV.W   @R9+,R3
02224B28  4328     SHLL16  R3
02224B2A  4300     SHLL    R3
02224B2C  8B01     BF      $02224B32
02224B2E  C74B     DW      $C74B
02224B30  6C03     MOV     R0,R12
02224B32  4308     SHLL2   R3
02224B34  4329     SHLR16  R3
02224B36  6E33     MOV     R3,R14
02224B38  931E     MOV.W   @(${target:08X},PC),R3
02224B3A  C74E     DW      $C74E
02224B3C  400B     JSR     @R0
02224B3E  E402     MOV     #$02,R4
02224B40  E408     MOV     #$08,R4
02224B42  E300     MOV     #$00,R3
02224B44  E500     MOV     #$00,R5
02224B46  6694     MOV.B   @R9+,R6
02224B48  4618     SHLL8   R6
02224B4A  6094     MOV.B   @R9+,R0
02224B4C  600C     EXTU.B  R0,R0
02224B4E  260B     OR      R0,R6
02224B50  B016     BSR     $02224B80
02224B52  E710     MOV     #$10,R7
02224B54  6EF6     MOV.L   @R15+,R14
02224B56  6DF6     MOV.L   @R15+,R13
02224B58  6CF6     MOV.L   @R15+,R12
02224B5A  6BF6     MOV.L   @R15+,R11
02224B5C  6AF6     MOV.L   @R15+,R10
02224B5E  69F6     MOV.L   @R15+,R9
02224B60  68F6     MOV.L   @R15+,R8
02224B62  67F6     MOV.L   @R15+,R7
02224B64  66F6     MOV.L   @R15+,R6
02224B66  65F6     MOV.L   @R15+,R5
02224B68  64F6     MOV.L   @R15+,R4
02224B6A  63F6     MOV.L   @R15+,R3
02224B6C  62F6     MOV.L   @R15+,R2
02224B6E  61F6     MOV.L   @R15+,R1
02224B70  60F6     MOV.L   @R15+,R0
02224B72  4F26     LDS.L   @R15+,PR    ; Pop PR
02224B74  000B     RTS
02224B76  0009     NOP
02224B78  00FF     MAC.L   @R15+,@R0+
02224B7A  0009     NOP
02224B7C  0600     DW      $0600
02224B7E  3000     CMP/EQ  R0,R0
02224B80  6873     MOV     R7,R8
02224B82  E008     MOV     #$08,R0
02224B84  3808     SUB     R0,R8
02224B86  6263     MOV     R6,R2
02224B88  6083     MOV     R8,R0
02224B8A  C93F     DW      $C93F
02224B8C  8800     CMP/EQ  #$00,R0
02224B8E  8902     BT      $02224B96
02224B90  4201     SHLR    R2
02224B92  4010     DT      R0
02224B94  8BFC     BF      $02224B90
02224B96  622C     EXTU.B  R2,R2
02224B98  E0FC     MOV     #$FC,R0
02224B9A  600C     EXTU.B  R0,R0
02224B9C  3202     CMP/HS  R0,R2
02224B9E  892C     BT      $02224BFA
02224BA0  322C     ADD     R2,R2
02224BA2  60A3     MOV     R10,R0
02224BA4  302C     ADD     R2,R0
02224BA6  6100     MOV.B   @R0,R1
02224BA8  3718     SUB     R1,R7
02224BAA  E009     MOV     #$09,R0
02224BAC  3702     CMP/HS  R0,R7
02224BAE  8906     BT      $02224BBE
02224BB0  E008     MOV     #$08,R0
02224BB2  370C     ADD     R0,R7
02224BB4  4618     SHLL8   R6
02224BB6  6094     MOV.B   @R9+,R0
02224BB8  600C     EXTU.B  R0,R0
02224BBA  260B     OR      R0,R6
02224BBC  666D     EXTU.W  R6,R6
02224BBE  E001     MOV     #$01,R0
02224BC0  302C     ADD     R2,R0
02224BC2  30AC     ADD     R10,R0
02224BC4  6204     MOV.B   @R0+,R2
02224BC6  6123     MOV     R2,R1
02224BC8  E00F     MOV     #$0F,R0
02224BCA  2209     AND     R0,R2
02224BCC  E0F0     MOV     #$F0,R0
02224BCE  600C     EXTU.B  R0,R0
02224BD0  2109     AND     R0,R1
02224BD2  4109     SHLR2   R1
02224BD4  4109     SHLR2   R1
02224BD6  E001     MOV     #$01,R0
02224BD8  310C     ADD     R0,R1
02224BDA  4508     SHLL2   R5
02224BDC  4508     SHLL2   R5
02224BDE  252B     OR      R2,R5
02224BE0  E001     MOV     #$01,R0
02224BE2  3408     SUB     R0,R4
02224BE4  6043     MOV     R4,R0
02224BE6  8800     CMP/EQ  #$00,R0
02224BE8  8B03     BF      $02224BF2
02224BEA  4C2B     JMP     @R12
02224BEC  0009     NOP
02224BEE  E500     MOV     #$00,R5
02224BF0  E408     MOV     #$08,R4
02224BF2  4110     DT      R1
02224BF4  8BF1     BF      $02224BDA
02224BF6  AFC3     BRA     $02224B80
02224BF8  0009     NOP
02224BFA  E006     MOV     #$06,R0
02224BFC  3708     SUB     R0,R7
02224BFE  E009     MOV     #$09,R0
02224C00  3702     CMP/HS  R0,R7
02224C02  8906     BT      $02224C12
02224C04  E008     MOV     #$08,R0
02224C06  370C     ADD     R0,R7
02224C08  4618     SHLL8   R6
02224C0A  666D     EXTU.W  R6,R6
02224C0C  6094     MOV.B   @R9+,R0
02224C0E  600C     EXTU.B  R0,R0
02224C10  260B     OR      R0,R6
02224C12  E007     MOV     #$07,R0
02224C14  3708     SUB     R0,R7
02224C16  6263     MOV     R6,R2
02224C18  6073     MOV     R7,R0
02224C1A  C93F     DW      $C93F
02224C1C  8800     CMP/EQ  #$00,R0
02224C1E  8902     BT      $02224C26
02224C20  4201     SHLR    R2
02224C22  4010     DT      R0
02224C24  8BFC     BF      $02224C20
02224C26  6123     MOV     R2,R1
02224C28  E00F     MOV     #$0F,R0
02224C2A  2209     AND     R0,R2
02224C2C  E070     MOV     #$70,R0
02224C2E  2109     AND     R0,R1
02224C30  E009     MOV     #$09,R0
02224C32  3702     CMP/HS  R0,R7
02224C34  89CD     BT      $02224BD2
02224C36  E008     MOV     #$08,R0
02224C38  370C     ADD     R0,R7
02224C3A  4618     SHLL8   R6
02224C3C  666D     EXTU.W  R6,R6
02224C3E  6094     MOV.B   @R9+,R0
02224C40  600C     EXTU.B  R0,R0
02224C42  AFC6     BRA     $02224BD2
02224C44  260B     OR      R0,R6
02224C46  0009     NOP
02224C48  2D52     MOV.L   R5,@R13
02224C4A  E004     MOV     #$04,R0
02224C4C  3D0C     ADD     R0,R13
02224C4E  E001     MOV     #$01,R0
02224C50  3E08     SUB     R0,R14
02224C52  E000     MOV     #$00,R0
02224C54  3E00     CMP/EQ  R0,R14
02224C56  8BCA     BF      $02224BEE
02224C58  000B     RTS
02224C5A  0009     NOP
02224C5C  235A     XOR     R5,R3
02224C5E  2D32     MOV.L   R3,@R13
02224C60  E004     MOV     #$04,R0
02224C62  3D0C     ADD     R0,R13
02224C64  E001     MOV     #$01,R0
02224C66  3E08     SUB     R0,R14
02224C68  E000     MOV     #$00,R0
02224C6A  3E00     CMP/EQ  R0,R14
02224C6C  8BBF     BF      $02224BEE
02224C6E  000B     RTS
02224C70  0009     NOP
02224C72  0009     NOP
02224C74  6194     MOV.B   @R9+,R1
02224C76  611C     EXTU.B  R1,R1
02224C78  3130     CMP/EQ  R3,R1
02224C7A  8B01     BF      $02224C80
02224C7C  000B     RTS

; === stream_state_machine ===
02224C7E  0009     NOP
02224C80  6813     MOV     R1,R8
02224C82  6194     MOV.B   @R9+,R1
02224C84  611C     EXTU.B  R1,R1
02224C86  9018     MOV.W   @(${target:08X},PC),R0
02224C88  3102     CMP/HS  R0,R1
02224C8A  89F5     BT      $02224C78
02224C8C  6213     MOV     R1,R2
02224C8E  E00F     MOV     #$0F,R0
02224C90  2809     AND     R0,R8
02224C92  E070     MOV     #$70,R0
02224C94  2209     AND     R0,R2
02224C96  282B     OR      R2,R8
02224C98  E00F     MOV     #$0F,R0
02224C9A  2109     AND     R0,R1
02224C9C  6213     MOV     R1,R2
02224C9E  4218     SHLL8   R2
02224CA0  282B     OR      R2,R8
02224CA2  E208     MOV     #$08,R2
02224CA4  3218     SUB     R1,R2
02224CA6  E000     MOV     #$00,R0
02224CA8  3200     CMP/EQ  R0,R2
02224CAA  8B07     BF      $02224CBC
02224CAC  6194     MOV.B   @R9+,R1
02224CAE  611C     EXTU.B  R1,R1
02224CB0  311C     ADD     R1,R1
02224CB2  60A3     MOV     R10,R0
02224CB4  301C     ADD     R1,R0
02224CB6  AFE4     BRA     $02224C82
02224CB8  2081     MOV.W   R8,@R0
02224CBA  0080     DW      $0080
02224CBC  6194     MOV.B   @R9+,R1
02224CBE  611C     EXTU.B  R1,R1
02224CC0  6023     MOV     R2,R0
02224CC2  C93F     DW      $C93F
02224CC4  8800     CMP/EQ  #$00,R0
02224CC6  8902     BT      $02224CCE
02224CC8  4100     SHLL    R1
02224CCA  4010     DT      R0
02224CCC  8BFC     BF      $02224CC8
02224CCE  311C     ADD     R1,R1
02224CD0  E601     MOV     #$01,R6
02224CD2  6023     MOV     R2,R0
02224CD4  C93F     DW      $C93F
02224CD6  8800     CMP/EQ  #$00,R0
02224CD8  8902     BT      $02224CE0
02224CDA  4600     SHLL    R6
02224CDC  4010     DT      R0
02224CDE  8BFC     BF      $02224CDA
02224CE0  60A3     MOV     R10,R0
02224CE2  301C     ADD     R1,R0
02224CE4  2081     MOV.W   R8,@R0
02224CE6  304C     ADD     R4,R0
02224CE8  4610     DT      R6
02224CEA  8BFB     BF      $02224CE4
02224CEC  AFC9     BRA     $02224C82
02224CEE  0009     NOP
02224CF0  4F22     STS.L   PR,@-R15    ; Push PR
02224CF2  D209     MOV.L   @($02224D18,PC),R2
02224CF4  D309     MOV.L   @($02224D1C,PC),R3
02224CF6  6922     MOV.L   @R2,R9
02224CF8  E400     MOV     #$00,R4
02224CFA  2341     MOV.W   R4,@R3
02224CFC  6521     MOV.W   @R2,R5
02224CFE  3540     CMP/EQ  R4,R5
02224D00  89FC     BT      $02224CFC
02224D02  6121     MOV.W   @R2,R1
02224D04  2341     MOV.W   R4,@R3
02224D06  DA06     MOV.L   @($02224D20,PC),R10
02224D08  B00E     BSR     $02224D28
02224D0A  0009     NOP
02224D0C  D005     MOV.L   @($02224D24,PC),R0
02224D0E  400B     JSR     @R0
02224D10  0009     NOP
02224D12  4F26     LDS.L   @R15+,PR    ; Pop PR
02224D14  000B     RTS

; === multipath_render_dispatch ===
02224D16  0009     NOP
02224D18  2000     MOV.B   R0,@R0
02224D1A  4028     SHLL16  R0
02224D1C  2000     MOV.B   R0,@R0
02224D1E  402C     DW      $402C
02224D20  0600     DW      $0600
02224D22  C000     DW      $C000
02224D24  0600     DW      $0600
02224D26  43FC     DW      $43FC
02224D28  4F22     STS.L   PR,@-R15    ; Push PR
02224D2A  2F06     MOV.L   R0,@-R15
02224D2C  2F16     MOV.L   R1,@-R15
02224D2E  2F26     MOV.L   R2,@-R15
02224D30  2F36     MOV.L   R3,@-R15
02224D32  2F46     MOV.L   R4,@-R15
02224D34  2F56     MOV.L   R5,@-R15
02224D36  2F66     MOV.L   R6,@-R15
02224D38  2F76     MOV.L   R7,@-R15
02224D3A  2F86     MOV.L   R8,@-R15
02224D3C  2F96     MOV.L   R9,@-R15
02224D3E  2FA6     MOV.L   R10,@-R15
02224D40  2FB6     MOV.L   R11,@-R15
02224D42  2FC6     MOV.L   R12,@-R15
02224D44  2FD6     MOV.L   R13,@-R15
02224D46  2FE6     MOV.L   R14,@-R15
02224D48  6C13     MOV     R1,R12
02224D4A  6194     MOV.B   @R9+,R1
02224D4C  6E13     MOV     R1,R14
02224D4E  6594     MOV.B   @R9+,R5
02224D50  4508     SHLL2   R5
02224D52  4500     SHLL    R5
02224D54  655C     EXTU.B  R5,R5
02224D56  6B95     MOV.W   @R9+,R11
02224D58  3BCC     ADD     R12,R11
02224D5A  6D95     MOV.W   @R9+,R13
02224D5C  3BCC     ADD     R12,R11
02224D5E  6694     MOV.B   @R9+,R6
02224D60  4618     SHLL8   R6
02224D62  666D     EXTU.W  R6,R6
02224D64  6094     MOV.B   @R9+,R0
02224D66  600C     EXTU.B  R0,R0
02224D68  260B     OR      R0,R6
02224D6A  E710     MOV     #$10,R7
02224D6C  E107     MOV     #$07,R1
02224D6E  6873     MOV     R7,R8
02224D70  3818     SUB     R1,R8
02224D72  6263     MOV     R6,R2
02224D74  6083     MOV     R8,R0
02224D76  C93F     DW      $C93F
02224D78  8800     CMP/EQ  #$00,R0
02224D7A  8903     BT      $02224D84
02224D7C  4201     SHLR    R2
02224D7E  4010     DT      R0
02224D80  8BFC     BF      $02224D7C
02224D82  622D     EXTU.W  R2,R2
02224D84  6023     MOV     R2,R0
02224D86  C97F     DW      $C97F
02224D88  6203     MOV     R0,R2
02224D8A  6323     MOV     R2,R3
02224D8C  E040     MOV     #$40,R0
02224D8E  3202     CMP/HS  R0,R2
02224D90  8901     BT      $02224D96
02224D92  E106     MOV     #$06,R1
02224D94  4301     SHLR    R3
02224D96  B126     BSR     $02224FE6
02224D98  0009     NOP
02224D9A  6033     MOV     R3,R0
02224D9C  C90F     DW      $C90F
02224D9E  6303     MOV     R0,R3
02224DA0  7301     ADD     #$01,R3
02224DA2  4209     SHLR2   R2
02224DA4  4209     SHLR2   R2
02224DA6  322C     ADD     R2,R2
02224DA8  322C     ADD     R2,R2
02224DAA  622D     EXTU.W  R2,R2
02224DAC  C71E     DW      $C71E
02224DAE  302C     ADD     R2,R0
02224DB0  402B     JMP     @R0
02224DB2  0009     NOP
02224DB4  2AB1     MOV.W   R11,@R10
02224DB6  E002     MOV     #$02,R0
02224DB8  3A0C     ADD     R0,R10
02224DBA  7B01     ADD     #$01,R11
02224DBC  4310     DT      R3
02224DBE  8BF9     BF      $02224DB4
02224DC0  AFD4     BRA     $02224D6C
02224DC2  0009     NOP
02224DC4  2AD1     MOV.W   R13,@R10
02224DC6  E002     MOV     #$02,R0
02224DC8  3A0C     ADD     R0,R10
02224DCA  4310     DT      R3
02224DCC  8BFA     BF      $02224DC4
02224DCE  AFCD     BRA     $02224D6C
02224DD0  0009     NOP
02224DD2  B057     BSR     $02224E84
02224DD4  0009     NOP
02224DD6  2A21     MOV.W   R2,@R10
02224DD8  E002     MOV     #$02,R0
02224DDA  3A0C     ADD     R0,R10
02224DDC  4310     DT      R3
02224DDE  8BFA     BF      $02224DD6
02224DE0  AFC4     BRA     $02224D6C
02224DE2  0009     NOP
02224DE4  B04E     BSR     $02224E84
02224DE6  0009     NOP
02224DE8  2A21     MOV.W   R2,@R10
02224DEA  E002     MOV     #$02,R0
02224DEC  3A0C     ADD     R0,R10
02224DEE  E001     MOV     #$01,R0
02224DF0  320C     ADD     R0,R2
02224DF2  4310     DT      R3
02224DF4  8BF8     BF      $02224DE8
02224DF6  AFB9     BRA     $02224D6C
02224DF8  0009     NOP
02224DFA  B043     BSR     $02224E84
02224DFC  0009     NOP
02224DFE  2A21     MOV.W   R2,@R10
02224E00  E002     MOV     #$02,R0
02224E02  3A0C     ADD     R0,R10
02224E04  E001     MOV     #$01,R0
02224E06  3208     SUB     R0,R2
02224E08  4310     DT      R3
02224E0A  8BF8     BF      $02224DFE
02224E0C  AFAE     BRA     $02224D6C
02224E0E  0009     NOP
02224E10  E010     MOV     #$10,R0
02224E12  3300     CMP/EQ  R0,R3
02224E14  8918     BT      $02224E48
02224E16  B035     BSR     $02224E84
02224E18  0009     NOP
02224E1A  2A21     MOV.W   R2,@R10
02224E1C  E002     MOV     #$02,R0
02224E1E  3A0C     ADD     R0,R10
02224E20  4310     DT      R3
02224E22  8BF8     BF      $02224E16
02224E24  AFA2     BRA     $02224D6C
02224E26  0009     NOP
02224E28  AFC4     BRA     $02224DB4
02224E2A  0009     NOP
02224E2C  AFC2     BRA     $02224DB4
02224E2E  0009     NOP
02224E30  AFC8     BRA     $02224DC4
02224E32  0009     NOP
02224E34  AFC6     BRA     $02224DC4
02224E36  0009     NOP
02224E38  AFCB     BRA     $02224DD2
02224E3A  0009     NOP
02224E3C  AFD2     BRA     $02224DE4
02224E3E  0009     NOP
02224E40  AFDB     BRA     $02224DFA
02224E42  0009     NOP
02224E44  AFE4     BRA     $02224E10
02224E46  0009     NOP
02224E48  E001     MOV     #$01,R0
02224E4A  3908     SUB     R0,R9
02224E4C  6073     MOV     R7,R0
02224E4E  8810     CMP/EQ  #$10,R0
02224E50  8B01     BF      $02224E56
02224E52  E001     MOV     #$01,R0
02224E54  3908     SUB     R0,R9
02224E56  6193     MOV     R9,R1
02224E58  611D     EXTU.W  R1,R1
02224E5A  4101     SHLR    R1
02224E5C  8B01     BF      $02224E62
02224E5E  E001     MOV     #$01,R0
02224E60  390C     ADD     R0,R9
02224E62  6EF6     MOV.L   @R15+,R14
02224E64  6DF6     MOV.L   @R15+,R13
02224E66  6CF6     MOV.L   @R15+,R12
02224E68  6BF6     MOV.L   @R15+,R11
02224E6A  6AF6     MOV.L   @R15+,R10
02224E6C  69F6     MOV.L   @R15+,R9
02224E6E  68F6     MOV.L   @R15+,R8
02224E70  67F6     MOV.L   @R15+,R7
02224E72  66F6     MOV.L   @R15+,R6
02224E74  65F6     MOV.L   @R15+,R5
02224E76  64F6     MOV.L   @R15+,R4
02224E78  63F6     MOV.L   @R15+,R3
02224E7A  62F6     MOV.L   @R15+,R2
02224E7C  61F6     MOV.L   @R15+,R1
02224E7E  60F6     MOV.L   @R15+,R0
02224E80  4F26     LDS.L   @R15+,PR    ; Pop PR
02224E82  000B     RTS
02224E84  64C3     MOV     R12,R4
02224E86  6253     MOV     R5,R2
02224E88  622C     EXTU.B  R2,R2
02224E8A  322C     ADD     R2,R2
02224E8C  9089     MOV.W   @(${target:08X},PC),R0
02224E8E  3203     CMP/GE  R0,R2
02224E90  8B0B     BF      $02224EAA
02224E92  9087     MOV.W   @(${target:08X},PC),R0
02224E94  3708     SUB     R0,R7
02224E96  2F66     MOV.L   R6,@-R15
02224E98  6073     MOV     R7,R0
02224E9A  C93F     DW      $C93F
02224E9C  4601     SHLR    R6
02224E9E  4010     DT      R0
02224EA0  8BFC     BF      $02224E9C
02224EA2  66F6     MOV.L   @R15+,R6
02224EA4  8B01     BF      $02224EAA
02224EA6  907E     MOV.W   @(${target:08X},PC),R0
02224EA8  240B     OR      R0,R4
02224EAA  322C     ADD     R2,R2
02224EAC  9079     MOV.W   @(${target:08X},PC),R0
02224EAE  3203     CMP/GE  R0,R2
02224EB0  8B0B     BF      $02224ECA
02224EB2  9077     MOV.W   @(${target:08X},PC),R0
02224EB4  3708     SUB     R0,R7
02224EB6  2F66     MOV.L   R6,@-R15
02224EB8  6073     MOV     R7,R0
02224EBA  C93F     DW      $C93F
02224EBC  4601     SHLR    R6
02224EBE  4010     DT      R0
02224EC0  8BFC     BF      $02224EBC
02224EC2  66F6     MOV.L   @R15+,R6
02224EC4  8B01     BF      $02224ECA
02224EC6  906F     MOV.W   @(${target:08X},PC),R0
02224EC8  240B     OR      R0,R4
02224ECA  322C     ADD     R2,R2
02224ECC  9069     MOV.W   @(${target:08X},PC),R0
02224ECE  3203     CMP/GE  R0,R2
02224ED0  8B0B     BF      $02224EEA
02224ED2  9067     MOV.W   @(${target:08X},PC),R0
02224ED4  3708     SUB     R0,R7
02224ED6  2F66     MOV.L   R6,@-R15
02224ED8  6073     MOV     R7,R0
02224EDA  C93F     DW      $C93F
02224EDC  4601     SHLR    R6
02224EDE  4010     DT      R0
02224EE0  8BFC     BF      $02224EDC
02224EE2  66F6     MOV.L   @R15+,R6
02224EE4  8B01     BF      $02224EEA
02224EE6  9060     MOV.W   @(${target:08X},PC),R0
02224EE8  240B     OR      R0,R4
02224EEA  322C     ADD     R2,R2
02224EEC  9059     MOV.W   @(${target:08X},PC),R0
02224EEE  3203     CMP/GE  R0,R2
02224EF0  8B0B     BF      $02224F0A
02224EF2  9057     MOV.W   @(${target:08X},PC),R0
02224EF4  3708     SUB     R0,R7
02224EF6  2F66     MOV.L   R6,@-R15
02224EF8  6073     MOV     R7,R0
02224EFA  C93F     DW      $C93F
02224EFC  4601     SHLR    R6
02224EFE  4010     DT      R0
02224F00  8BFC     BF      $02224EFC
02224F02  66F6     MOV.L   @R15+,R6
02224F04  8B01     BF      $02224F0A
02224F06  9051     MOV.W   @(${target:08X},PC),R0
02224F08  240B     OR      R0,R4
02224F0A  322C     ADD     R2,R2
02224F0C  9049     MOV.W   @(${target:08X},PC),R0
02224F0E  3203     CMP/GE  R0,R2
02224F10  8B0B     BF      $02224F2A
02224F12  9047     MOV.W   @(${target:08X},PC),R0
02224F14  3708     SUB     R0,R7
02224F16  2F66     MOV.L   R6,@-R15
02224F18  6073     MOV     R7,R0
02224F1A  C93F     DW      $C93F
02224F1C  4601     SHLR    R6
02224F1E  4010     DT      R0
02224F20  8BFC     BF      $02224F1C
02224F22  66F6     MOV.L   @R15+,R6
02224F24  8B01     BF      $02224F2A
02224F26  9042     MOV.W   @(${target:08X},PC),R0
02224F28  240B     OR      R0,R4
02224F2A  6263     MOV     R6,R2
02224F2C  6873     MOV     R7,R8
02224F2E  0008     CLRT
02224F30  38EA     SUBC    R14,R8
02224F32  8B3E     BF      $02224FB2
02224F34  6783     MOV     R8,R7
02224F36  903B     MOV.W   @(${target:08X},PC),R0
02224F38  370C     ADD     R0,R7
02224F3A  688B     NEG     R8,R8
02224F3C  6083     MOV     R8,R0
02224F3E  C93F     DW      $C93F
02224F40  8800     CMP/EQ  #$00,R0
02224F42  8903     BT      $02224F4C
02224F44  4200     SHLL    R2
02224F46  4010     DT      R0
02224F48  8BFC     BF      $02224F44
02224F4A  622D     EXTU.W  R2,R2
02224F4C  6690     MOV.B   @R9,R6
02224F4E  4628     SHLL16  R6
02224F50  4618     SHLL8   R6
02224F52  6083     MOV     R8,R0
02224F54  C93F     DW      $C93F
02224F56  8800     CMP/EQ  #$00,R0
02224F58  8902     BT      $02224F60
02224F5A  4604     ROTL    R6
02224F5C  4010     DT      R0
02224F5E  8BFC     BF      $02224F5A
02224F60  6063     MOV     R6,R0
02224F62  600C     EXTU.B  R0,R0
02224F64  4629     SHLR16  R6
02224F66  4619     SHLR8   R6
02224F68  260B     OR      R0,R6
02224F6A  388C     ADD     R8,R8
02224F6C  E002     MOV     #$02,R0
02224F6E  3808     SUB     R0,R8
02224F70  688D     EXTU.W  R8,R8
02224F72  C724     DW      $C724
02224F74  380C     ADD     R0,R8
02224F76  6081     MOV.W   @R8,R0
02224F78  600D     EXTU.W  R0,R0
02224F7A  2609     AND     R0,R6
02224F7C  326C     ADD     R6,R2
02224F7E  61E3     MOV     R14,R1
02224F80  311C     ADD     R1,R1
02224F82  E002     MOV     #$02,R0
02224F84  3108     SUB     R0,R1
02224F86  611D     EXTU.W  R1,R1
02224F88  C71E     DW      $C71E
02224F8A  310C     ADD     R0,R1
02224F8C  6011     MOV.W   @R1,R0
02224F8E  600D     EXTU.W  R0,R0
02224F90  2209     AND     R0,R2
02224F92  324C     ADD     R4,R2
02224F94  6694     MOV.B   @R9+,R6
02224F96  4618     SHLL8   R6
02224F98  666D     EXTU.W  R6,R6
02224F9A  6094     MOV.B   @R9+,R0
02224F9C  600C     EXTU.B  R0,R0
02224F9E  000B     RTS
02224FA0  260B     OR      R0,R6
02224FA2  0100     DW      $0100
02224FA4  0001     DW      $0001
02224FA6  8000     MOV.B   R0,@($0,R0)
02224FA8  4000     SHLL    R0
02224FAA  2000     MOV.B   R0,@R0
02224FAC  1000     MOV.L   R0,@($0,R0)
02224FAE  0800     DW      $0800
02224FB0  0010     DW      $0010
02224FB2  E000     MOV     #$00,R0
02224FB4  3800     CMP/EQ  R0,R8
02224FB6  8914     BT      $02224FE2
02224FB8  6083     MOV     R8,R0
02224FBA  C93F     DW      $C93F
02224FBC  8800     CMP/EQ  #$00,R0
02224FBE  8903     BT      $02224FC8
02224FC0  4201     SHLR    R2
02224FC2  4010     DT      R0
02224FC4  8BFC     BF      $02224FC0
02224FC6  622D     EXTU.W  R2,R2
02224FC8  61E3     MOV     R14,R1
02224FCA  311C     ADD     R1,R1
02224FCC  E002     MOV     #$02,R0
02224FCE  3108     SUB     R0,R1
02224FD0  611D     EXTU.W  R1,R1
02224FD2  C70C     DW      $C70C
02224FD4  310C     ADD     R0,R1
02224FD6  6011     MOV.W   @R1,R0
02224FD8  600D     EXTU.W  R0,R0
02224FDA  2209     AND     R0,R2
02224FDC  324C     ADD     R4,R2
02224FDE  A002     BRA     $02224FE6
02224FE0  61E3     MOV     R14,R1
02224FE2  AFCC     BRA     $02224F7E
02224FE4  E710     MOV     #$10,R7
02224FE6  3718     SUB     R1,R7
02224FE8  900A     MOV.W   @(${target:08X},PC),R0
02224FEA  3702     CMP/HS  R0,R7
02224FEC  8906     BT      $02224FFC
02224FEE  9008     MOV.W   @(${target:08X},PC),R0
02224FF0  370C     ADD     R0,R7
02224FF2  4618     SHLL8   R6
02224FF4  666D     EXTU.W  R6,R6
02224FF6  6094     MOV.B   @R9+,R0
02224FF8  600C     EXTU.B  R0,R0
02224FFA  260B     OR      R0,R6
02224FFC  000B     RTS
02224FFE  0009     NOP
